
Optional file libmchp_peripheral.a not found

Optional file libmchp_peripheral_32MX795F512H.a not found
Archive member included because of file (symbol)

d:/programs/xc32/bin/bin/../../lib/gcc/pic32mx/4.8.3\libgcc.a(_udivdi3.o)
                              build/default/debug/_ext/101884895/sys_time.o (__udivdi3)
d:/programs/xc32/bin/bin/../../lib/gcc/pic32mx/4.8.3\libgcc.a(floatunsisf.o)
                              build/default/debug/_ext/60169480/plib_i2c5.o (__floatunsisf)
d:/programs/xc32/bin/bin/../../lib/gcc/pic32mx/4.8.3/../../../../pic32mx/lib\libpic32.a(memset.o)
                              build/default/debug/_ext/101884895/sys_time.o (memset)
d:/programs/xc32/bin/bin/../../lib/gcc/pic32mx/4.8.3/../../../../pic32mx/lib\libpic32.a(default-bootstrap-exception-handler.o)
                              C:\Users\samfi\AppData\Local\Temp\ccuXFrqE.o (_bootstrap_exception_handler)
d:/programs/xc32/bin/bin/../../lib/gcc/pic32mx/4.8.3/../../../../pic32mx/lib\libpic32.a(default-on-reset.o)
                              C:\Users\samfi\AppData\Local\Temp\ccuXFrqE.o (_on_reset)
d:/programs/xc32/bin/bin/../../lib/gcc/pic32mx/4.8.3/../../../../pic32mx/lib\libpic32.a(default-on-bootstrap.o)
                              C:\Users\samfi\AppData\Local\Temp\ccuXFrqE.o (_on_bootstrap)
d:/programs/xc32/bin/bin/../../lib/gcc/pic32mx/4.8.3/../../../../pic32mx/lib\libpic32.a(default-nmi-handler.o)
                              C:\Users\samfi\AppData\Local\Temp\ccuXFrqE.o (_nmi_handler)
d:/programs/xc32/bin/bin/../../lib/gcc/pic32mx/4.8.3/../../../../pic32mx/lib\libpic32.a(pic32_data_init.o)
                              C:\Users\samfi\AppData\Local\Temp\ccuXFrqE.o (__pic32_data_init)
d:/programs/xc32/bin/bin/../../lib/gcc/pic32mx/4.8.3/../../../../pic32mx/lib\libpic32.a(general-exception.o)
                              C:\Users\samfi\AppData\Local\Temp\ccuXFrqE.o (_general_exception_context)
d:/programs/xc32/bin/bin/../../lib/gcc/pic32mx/4.8.3/../../../../pic32mx/lib\libpic32.a(vector1.o)
                              C:\Users\samfi\AppData\Local\Temp\ccIQ8Woh.o (__vector_dispatch_1)
d:/programs/xc32/bin/bin/../../lib/gcc/pic32mx/4.8.3/../../../../pic32mx/lib\libpic32.a(vector2.o)
                              C:\Users\samfi\AppData\Local\Temp\ccIQ8Woh.o (__vector_dispatch_2)
d:/programs/xc32/bin/bin/../../lib/gcc/pic32mx/4.8.3/../../../../pic32mx/lib\libpic32.a(vector3.o)
                              C:\Users\samfi\AppData\Local\Temp\ccIQ8Woh.o (__vector_dispatch_3)
d:/programs/xc32/bin/bin/../../lib/gcc/pic32mx/4.8.3/../../../../pic32mx/lib\libpic32.a(vector6.o)
                              C:\Users\samfi\AppData\Local\Temp\ccIQ8Woh.o (__vector_dispatch_6)
d:/programs/xc32/bin/bin/../../lib/gcc/pic32mx/4.8.3/../../../../pic32mx/lib\libpic32.a(vector7.o)
                              C:\Users\samfi\AppData\Local\Temp\ccIQ8Woh.o (__vector_dispatch_7)
d:/programs/xc32/bin/bin/../../lib/gcc/pic32mx/4.8.3/../../../../pic32mx/lib\libpic32.a(vector10.o)
                              C:\Users\samfi\AppData\Local\Temp\ccIQ8Woh.o (__vector_dispatch_10)
d:/programs/xc32/bin/bin/../../lib/gcc/pic32mx/4.8.3/../../../../pic32mx/lib\libpic32.a(vector11.o)
                              C:\Users\samfi\AppData\Local\Temp\ccIQ8Woh.o (__vector_dispatch_11)
d:/programs/xc32/bin/bin/../../lib/gcc/pic32mx/4.8.3/../../../../pic32mx/lib\libpic32.a(vector12.o)
                              C:\Users\samfi\AppData\Local\Temp\ccIQ8Woh.o (__vector_dispatch_12)
d:/programs/xc32/bin/bin/../../lib/gcc/pic32mx/4.8.3/../../../../pic32mx/lib\libpic32.a(vector14.o)
                              C:\Users\samfi\AppData\Local\Temp\ccIQ8Woh.o (__vector_dispatch_14)
d:/programs/xc32/bin/bin/../../lib/gcc/pic32mx/4.8.3/../../../../pic32mx/lib\libpic32.a(vector15.o)
                              C:\Users\samfi\AppData\Local\Temp\ccIQ8Woh.o (__vector_dispatch_15)
d:/programs/xc32/bin/bin/../../lib/gcc/pic32mx/4.8.3/../../../../pic32mx/lib\libpic32.a(vector18.o)
                              C:\Users\samfi\AppData\Local\Temp\ccIQ8Woh.o (__vector_dispatch_18)
d:/programs/xc32/bin/bin/../../lib/gcc/pic32mx/4.8.3/../../../../pic32mx/lib\libpic32.a(vector19.o)
                              C:\Users\samfi\AppData\Local\Temp\ccIQ8Woh.o (__vector_dispatch_19)
d:/programs/xc32/bin/bin/../../lib/gcc/pic32mx/4.8.3/../../../../pic32mx/lib\libpic32.a(vector20.o)
                              C:\Users\samfi\AppData\Local\Temp\ccIQ8Woh.o (__vector_dispatch_20)
d:/programs/xc32/bin/bin/../../lib/gcc/pic32mx/4.8.3/../../../../pic32mx/lib\libpic32.a(vector21.o)
                              C:\Users\samfi\AppData\Local\Temp\ccIQ8Woh.o (__vector_dispatch_21)
d:/programs/xc32/bin/bin/../../lib/gcc/pic32mx/4.8.3/../../../../pic32mx/lib\libpic32.a(vector22.o)
                              C:\Users\samfi\AppData\Local\Temp\ccIQ8Woh.o (__vector_dispatch_22)
d:/programs/xc32/bin/bin/../../lib/gcc/pic32mx/4.8.3/../../../../pic32mx/lib\libpic32.a(vector23.o)
                              C:\Users\samfi\AppData\Local\Temp\ccIQ8Woh.o (__vector_dispatch_23)
d:/programs/xc32/bin/bin/../../lib/gcc/pic32mx/4.8.3/../../../../pic32mx/lib\libpic32.a(vector24.o)
                              C:\Users\samfi\AppData\Local\Temp\ccIQ8Woh.o (__vector_dispatch_24)
d:/programs/xc32/bin/bin/../../lib/gcc/pic32mx/4.8.3/../../../../pic32mx/lib\libpic32.a(vector25.o)
                              C:\Users\samfi\AppData\Local\Temp\ccIQ8Woh.o (__vector_dispatch_25)
d:/programs/xc32/bin/bin/../../lib/gcc/pic32mx/4.8.3/../../../../pic32mx/lib\libpic32.a(vector26.o)
                              C:\Users\samfi\AppData\Local\Temp\ccIQ8Woh.o (__vector_dispatch_26)
d:/programs/xc32/bin/bin/../../lib/gcc/pic32mx/4.8.3/../../../../pic32mx/lib\libpic32.a(vector27.o)
                              C:\Users\samfi\AppData\Local\Temp\ccIQ8Woh.o (__vector_dispatch_27)
d:/programs/xc32/bin/bin/../../lib/gcc/pic32mx/4.8.3/../../../../pic32mx/lib\libpic32.a(vector28.o)
                              C:\Users\samfi\AppData\Local\Temp\ccIQ8Woh.o (__vector_dispatch_28)
d:/programs/xc32/bin/bin/../../lib/gcc/pic32mx/4.8.3/../../../../pic32mx/lib\libpic32.a(vector29.o)
                              C:\Users\samfi\AppData\Local\Temp\ccIQ8Woh.o (__vector_dispatch_29)
d:/programs/xc32/bin/bin/../../lib/gcc/pic32mx/4.8.3/../../../../pic32mx/lib\libpic32.a(vector30.o)
                              C:\Users\samfi\AppData\Local\Temp\ccIQ8Woh.o (__vector_dispatch_30)
d:/programs/xc32/bin/bin/../../lib/gcc/pic32mx/4.8.3/../../../../pic32mx/lib\libpic32.a(vector31.o)
                              C:\Users\samfi\AppData\Local\Temp\ccIQ8Woh.o (__vector_dispatch_31)
d:/programs/xc32/bin/bin/../../lib/gcc/pic32mx/4.8.3/../../../../pic32mx/lib\libpic32.a(vector33.o)
                              C:\Users\samfi\AppData\Local\Temp\ccIQ8Woh.o (__vector_dispatch_33)
d:/programs/xc32/bin/bin/../../lib/gcc/pic32mx/4.8.3/../../../../pic32mx/lib\libpic32.a(vector34.o)
                              C:\Users\samfi\AppData\Local\Temp\ccIQ8Woh.o (__vector_dispatch_34)
d:/programs/xc32/bin/bin/../../lib/gcc/pic32mx/4.8.3/../../../../pic32mx/lib\libpic32.a(vector35.o)
                              C:\Users\samfi\AppData\Local\Temp\ccIQ8Woh.o (__vector_dispatch_35)
d:/programs/xc32/bin/bin/../../lib/gcc/pic32mx/4.8.3/../../../../pic32mx/lib\libpic32.a(vector36.o)
                              C:\Users\samfi\AppData\Local\Temp\ccIQ8Woh.o (__vector_dispatch_36)
d:/programs/xc32/bin/bin/../../lib/gcc/pic32mx/4.8.3/../../../../pic32mx/lib\libpic32.a(vector37.o)
                              C:\Users\samfi\AppData\Local\Temp\ccIQ8Woh.o (__vector_dispatch_37)
d:/programs/xc32/bin/bin/../../lib/gcc/pic32mx/4.8.3/../../../../pic32mx/lib\libpic32.a(vector38.o)
                              C:\Users\samfi\AppData\Local\Temp\ccIQ8Woh.o (__vector_dispatch_38)
d:/programs/xc32/bin/bin/../../lib/gcc/pic32mx/4.8.3/../../../../pic32mx/lib\libpic32.a(vector39.o)
                              C:\Users\samfi\AppData\Local\Temp\ccIQ8Woh.o (__vector_dispatch_39)
d:/programs/xc32/bin/bin/../../lib/gcc/pic32mx/4.8.3/../../../../pic32mx/lib\libpic32.a(vector40.o)
                              C:\Users\samfi\AppData\Local\Temp\ccIQ8Woh.o (__vector_dispatch_40)
d:/programs/xc32/bin/bin/../../lib/gcc/pic32mx/4.8.3/../../../../pic32mx/lib\libpic32.a(vector41.o)
                              C:\Users\samfi\AppData\Local\Temp\ccIQ8Woh.o (__vector_dispatch_41)
d:/programs/xc32/bin/bin/../../lib/gcc/pic32mx/4.8.3/../../../../pic32mx/lib\libpic32.a(vector42.o)
                              C:\Users\samfi\AppData\Local\Temp\ccIQ8Woh.o (__vector_dispatch_42)
d:/programs/xc32/bin/bin/../../lib/gcc/pic32mx/4.8.3/../../../../pic32mx/lib\libpic32.a(vector43.o)
                              C:\Users\samfi\AppData\Local\Temp\ccIQ8Woh.o (__vector_dispatch_43)
d:/programs/xc32/bin/bin/../../lib/gcc/pic32mx/4.8.3/../../../../pic32mx/lib\libpic32.a(vector44.o)
                              C:\Users\samfi\AppData\Local\Temp\ccIQ8Woh.o (__vector_dispatch_44)
d:/programs/xc32/bin/bin/../../lib/gcc/pic32mx/4.8.3/../../../../pic32mx/lib\libpic32.a(vector45.o)
                              C:\Users\samfi\AppData\Local\Temp\ccIQ8Woh.o (__vector_dispatch_45)
d:/programs/xc32/bin/bin/../../lib/gcc/pic32mx/4.8.3/../../../../pic32mx/lib\libpic32.a(vector46.o)
                              C:\Users\samfi\AppData\Local\Temp\ccIQ8Woh.o (__vector_dispatch_46)
d:/programs/xc32/bin/bin/../../lib/gcc/pic32mx/4.8.3/../../../../pic32mx/lib\libpic32.a(vector47.o)
                              C:\Users\samfi\AppData\Local\Temp\ccIQ8Woh.o (__vector_dispatch_47)
d:/programs/xc32/bin/bin/../../lib/gcc/pic32mx/4.8.3/../../../../pic32mx/lib\libpic32.a(vector48.o)
                              C:\Users\samfi\AppData\Local\Temp\ccIQ8Woh.o (__vector_dispatch_48)
d:/programs/xc32/bin/bin/../../lib/gcc/pic32mx/4.8.3/../../../../pic32mx/lib\libpic32.a(vector49.o)
                              C:\Users\samfi\AppData\Local\Temp\ccIQ8Woh.o (__vector_dispatch_49)
d:/programs/xc32/bin/bin/../../lib/gcc/pic32mx/4.8.3/../../../../pic32mx/lib\libpic32.a(vector51.o)
                              C:\Users\samfi\AppData\Local\Temp\ccIQ8Woh.o (__vector_dispatch_51)
d:/programs/xc32/bin/bin/../../lib/gcc/pic32mx/4.8.3/../../../../pic32mx/lib\libpic32.a(defaultinterrupt.o)
                              d:/programs/xc32/bin/bin/../../lib/gcc/pic32mx/4.8.3/../../../../pic32mx/lib\libpic32.a(vector1.o) (_DefaultInterrupt)
d:/programs/xc32/bin/bin/../../lib/gcc/pic32mx/4.8.3/../../../../pic32mx/lib\libc.a(printf_cdnopsuxX.eo)
                              build/default/debug/_ext/1171490990/exceptions.o (_printf_cdnopsuxX)
d:/programs/xc32/bin/bin/../../lib/gcc/pic32mx/4.8.3/../../../../pic32mx/lib\libc.a(sprintf_fF.eo)
                              build/default/debug/_ext/1360937237/app.o (_sprintf_fF)
d:/programs/xc32/bin/bin/../../lib/gcc/pic32mx/4.8.3/../../../../pic32mx/lib\libc.a(_iob.o)
                              d:/programs/xc32/bin/bin/../../lib/gcc/pic32mx/4.8.3/../../../../pic32mx/lib\libc.a(printf_cdnopsuxX.eo) (_iob)
d:/programs/xc32/bin/bin/../../lib/gcc/pic32mx/4.8.3/../../../../pic32mx/lib\libc.a(doprnt_cdnopsuxX.eo)
                              d:/programs/xc32/bin/bin/../../lib/gcc/pic32mx/4.8.3/../../../../pic32mx/lib\libc.a(printf_cdnopsuxX.eo) (_vfprintf_cdnopsuxX)
d:/programs/xc32/bin/bin/../../lib/gcc/pic32mx/4.8.3/../../../../pic32mx/lib\libc.a(doprnt_fF.eo)
                              d:/programs/xc32/bin/bin/../../lib/gcc/pic32mx/4.8.3/../../../../pic32mx/lib\libc.a(sprintf_fF.eo) (_vfprintf_fF)
d:/programs/xc32/bin/bin/../../lib/gcc/pic32mx/4.8.3/../../../../pic32mx/lib\libc.a(_fputc_simple.o)
                              d:/programs/xc32/bin/bin/../../lib/gcc/pic32mx/4.8.3/../../../../pic32mx/lib\libc.a(doprnt_cdnopsuxX.eo) (fputc)
d:/programs/xc32/bin/bin/../../lib/gcc/pic32mx/4.8.3/../../../../pic32mx/lib\libc.a(ctype.o)
                              d:/programs/xc32/bin/bin/../../lib/gcc/pic32mx/4.8.3/../../../../pic32mx/lib\libc.a(doprnt_cdnopsuxX.eo) (_ctype)
d:/programs/xc32/bin/bin/../../lib/gcc/pic32mx/4.8.3/../../../../pic32mx/lib\libc.a(ldpowers.o)
                              d:/programs/xc32/bin/bin/../../lib/gcc/pic32mx/4.8.3/../../../../pic32mx/lib\libc.a(doprnt_fF.eo) (_npowers_)
d:/programs/xc32/bin/bin/../../lib/gcc/pic32mx/4.8.3/../../../../pic32mx/lib\libc.a(_flsbuf_simple.o)
                              d:/programs/xc32/bin/bin/../../lib/gcc/pic32mx/4.8.3/../../../../pic32mx/lib\libc.a(_fputc_simple.o) (_flsbuf)
d:/programs/xc32/bin/bin/../../lib/gcc/pic32mx/4.8.3/../../../../pic32mx/lib\libc.a(doprnt_cdfFnopsuxX.eo)
                              (_vfprintf_cdfFnopsuxX)
d:/programs/xc32/bin/bin/../../lib/gcc/pic32mx/4.8.3/../../../../pic32mx/lib\libm.a(dpfrexp.o)
                              d:/programs/xc32/bin/bin/../../lib/gcc/pic32mx/4.8.3/../../../../pic32mx/lib\libc.a(doprnt_fF.eo) (frexpl)
d:/programs/xc32/bin/bin/../../lib/gcc/pic32mx/4.8.3/../../../../pic32mx/lib\libm.a(dp32div.o)
                              d:/programs/xc32/bin/bin/../../lib/gcc/pic32mx/4.8.3/../../../../pic32mx/lib\libc.a(doprnt_fF.eo) (dpdiv)
d:/programs/xc32/bin/bin/../../lib/gcc/pic32mx/4.8.3/../../../../pic32mx/lib\libm.a(dp32mul.o)
                              d:/programs/xc32/bin/bin/../../lib/gcc/pic32mx/4.8.3/../../../../pic32mx/lib\libc.a(doprnt_fF.eo) (dpmul)
d:/programs/xc32/bin/bin/../../lib/gcc/pic32mx/4.8.3/../../../../pic32mx/lib\libm.a(dp32subadd.o)
                              d:/programs/xc32/bin/bin/../../lib/gcc/pic32mx/4.8.3/../../../../pic32mx/lib\libc.a(doprnt_fF.eo) (dpsub)
d:/programs/xc32/bin/bin/../../lib/gcc/pic32mx/4.8.3/../../../../pic32mx/lib\libm.a(dpcmp.o)
                              d:/programs/xc32/bin/bin/../../lib/gcc/pic32mx/4.8.3/../../../../pic32mx/lib\libc.a(doprnt_fF.eo) (dpcmp)
d:/programs/xc32/bin/bin/../../lib/gcc/pic32mx/4.8.3/../../../../pic32mx/lib\libm.a(fp32div.o)
                              build/default/debug/_ext/60169480/plib_i2c5.o (fpdiv)
d:/programs/xc32/bin/bin/../../lib/gcc/pic32mx/4.8.3/../../../../pic32mx/lib\libm.a(fp32mul.o)
                              build/default/debug/BNO055.o (fpmul)
d:/programs/xc32/bin/bin/../../lib/gcc/pic32mx/4.8.3/../../../../pic32mx/lib\libm.a(fp32subadd.o)
                              build/default/debug/_ext/1360937237/state_estimation.o (fpsub)
d:/programs/xc32/bin/bin/../../lib/gcc/pic32mx/4.8.3/../../../../pic32mx/lib\libm.a(fptodp.o)
                              d:/programs/xc32/bin/bin/../../lib/gcc/pic32mx/4.8.3/../../../../pic32mx/lib\libc.a(doprnt_fF.eo) (fptodp)
d:/programs/xc32/bin/bin/../../lib/gcc/pic32mx/4.8.3/../../../../pic32mx/lib\libm.a(fptoul.o)
                              build/default/debug/_ext/60169480/plib_i2c5.o (fptoui)
d:/programs/xc32/bin/bin/../../lib/gcc/pic32mx/4.8.3/../../../../pic32mx/lib\libm.a(sitofp.o)
                              build/default/debug/BNO055.o (sitofp)
d:/programs/xc32/bin/bin/../../lib/gcc/pic32mx/4.8.3/../../../../pic32mx/lib\libe.a(_fixunsdfdi.o)
                              d:/programs/xc32/bin/bin/../../lib/gcc/pic32mx/4.8.3/../../../../pic32mx/lib\libc.a(doprnt_fF.eo) (__fixunsdfdi)
d:/programs/xc32/bin/bin/../../lib/gcc/pic32mx/4.8.3/../../../../pic32mx/lib\libe.a(_orderdf2.o)
                              d:/programs/xc32/bin/bin/../../lib/gcc/pic32mx/4.8.3/../../../../pic32mx/lib\libe.a(_fixunsdfdi.o) (__orderdf2)
d:/programs/xc32/bin/bin/../../lib/gcc/pic32mx/4.8.3/../../../../pic32mx/lib\libe.a(_fixdfdi.o)
                              d:/programs/xc32/bin/bin/../../lib/gcc/pic32mx/4.8.3/../../../../pic32mx/lib\libe.a(_fixunsdfdi.o) (__fixdfdi)
d:/programs/xc32/bin/bin/../../lib/gcc/pic32mx/4.8.3\libgcc.a(_floatundidf.o)
                              d:/programs/xc32/bin/bin/../../lib/gcc/pic32mx/4.8.3/../../../../pic32mx/lib\libc.a(doprnt_fF.eo) (__floatundidf)
d:/programs/xc32/bin/bin/../../lib/gcc/pic32mx/4.8.3\libgcc.a(_umoddi3.o)
                              d:/programs/xc32/bin/bin/../../lib/gcc/pic32mx/4.8.3/../../../../pic32mx/lib\libc.a(doprnt_cdnopsuxX.eo) (__umoddi3)
d:/programs/xc32/bin/bin/../../lib/gcc/pic32mx/4.8.3\libgcc.a(floatunsidf.o)
                              d:/programs/xc32/bin/bin/../../lib/gcc/pic32mx/4.8.3\libgcc.a(_floatundidf.o) (__floatunsidf)
d:/programs/xc32/bin/bin/../../lib/gcc/pic32mx/4.8.3/../../../../pic32mx/lib\libpic32.a(write.o)
                              d:/programs/xc32/bin/bin/../../lib/gcc/pic32mx/4.8.3/../../../../pic32mx/lib\libc.a(_fputc_simple.o) (write)
d:/programs/xc32/bin/bin/../../lib/gcc/pic32mx/4.8.3/../../../../pic32mx/lib\libm.a(litodp.o)
                              d:/programs/xc32/bin/bin/../../lib/gcc/pic32mx/4.8.3\libgcc.a(floatunsidf.o) (litodp)

Allocating common symbols
Common symbol       size              file

attitude_sensor     0x18              build/default/debug/_ext/1360937237/app.o
output_outer_roll   0x4               build/default/debug/_ext/1360937237/app.o
uart_errors         0x4               build/default/debug/_ext/1360937237/app.o
bno055              0x22              build/default/debug/_ext/1360937237/app.o
mpu6050             0x22              build/default/debug/_ext/1360937237/app.o
icap2Obj            0x8               build/default/debug/_ext/1865301019/plib_icap2.o
output_inner_yaw    0x4               build/default/debug/_ext/1360937237/app.o
motor_outputs       0x8               build/default/debug/_ext/1360937237/app.o
buffi2c             0xe               build/default/debug/_ext/1360937237/app.o
appData             0x18              build/default/debug/_ext/1360937237/app.o
eulerAngles         0xc               build/default/debug/_ext/1360937237/app.o
sensor_list         0x2a8             build/default/debug/_ext/1360937237/app.o
uart_bluetoothData  0x4               build/default/debug/_ext/1360937237/uart_bluetooth.o
sysObj              0xc               build/default/debug/_ext/1171490990/initialization.o
uart_buffer         0x20              build/default/debug/_ext/1360937237/app.o
accelGyro           0xc               build/default/debug/_ext/1360937237/app.o
icap4Obj            0x8               build/default/debug/_ext/1865301019/plib_icap4.o
output_inner_pitch  0x4               build/default/debug/_ext/1360937237/app.o
icap1Obj            0x8               build/default/debug/_ext/1865301019/plib_icap1.o
uartTxBuffer        0x20              build/default/debug/_ext/1360937237/app.o
buff                0xe               build/default/debug/MPU6050.o
pid_inner           0x6c              build/default/debug/_ext/1360937237/app.o
i2cerror            0x4               build/default/debug/_ext/1360937237/app.o
output_outer_pitch  0x4               build/default/debug/_ext/1360937237/app.o
controller          0x8               build/default/debug/_ext/1360937237/app.o
coreTmr             0x8               build/default/debug/_ext/1249264884/plib_coretimer.o
global_data         0x4               build/default/debug/_ext/1360937237/i2c_personal.o
uart6Obj            0x30              build/default/debug/_ext/1865657120/plib_uart6.o
sensors             0x8               build/default/debug/_ext/1360937237/app.o
isdataready         0x2               build/default/debug/_ext/1360937237/app.o
output_inner_roll   0x4               build/default/debug/_ext/1360937237/app.o
attitude_desired    0x18              build/default/debug/_ext/1360937237/app.o
buffi2ctx           0x1               build/default/debug/_ext/1360937237/app.o
i2cevent            0x4               build/default/debug/_ext/1360937237/app.o
output_outer_yaw    0x4               build/default/debug/_ext/1360937237/app.o
pid_inner_x         0x24              build/default/debug/_ext/1360937237/app.o
pid_outer           0x6c              build/default/debug/_ext/1360937237/app.o
icap3Obj            0x8               build/default/debug/_ext/1865301019/plib_icap3.o

Microchip PIC32 Memory-Usage Report

kseg0 Program-Memory Usage
section                    address  length [bytes]      (dec)  Description
-------                 ----------  -------------------------  -----------
.text._vfprintf_cdfFnop 0x9d000000         0x1554        5460   
.text.APP_Tasks         0x9d001554          0x838        2104   
.text.I2C_5_InterruptHa 0x9d001d8c          0x57c        1404   
.text.dp32mul           0x9d002308          0x4b8        1208   
.text                   0x9d0027c0          0x8bc        2236  App's exec code 
.text.dp32subadd        0x9d00307c          0x430        1072   
.text._DRV_I2C_WriteRea 0x9d0034ac          0x384         900   
.text.dp32mul           0x9d003830          0x32c         812   
.text._DRV_I2C_PLibCall 0x9d003b5c          0x290         656   
.text.fpsubadd          0x9d003dec          0x278         632   
.text.UART_6_InterruptH 0x9d004064          0x270         624   
.text.scale             0x9d0042d4          0x23c         572   
.text.fp32div           0x9d004510          0x230         560   
.text._DRV_USART_Buffer 0x9d004740          0x218         536   
.text.SYS_TIME_PLIBCall 0x9d004958          0x1e4         484   
.text.fp32mul           0x9d004b3c          0x1bc         444   
.dinit                  0x9d004cf8          0x1b0         432   
.text._DRV_USART_Buffer 0x9d004ea8          0x1ac         428   
.text.DRV_I2C_Open      0x9d005054          0x19c         412   
.text.DRV_USART_Initial 0x9d0051f0          0x194         404   
.text.DRV_USART_Open    0x9d005384          0x184         388   
.text.SYS_TIME_HwTimerC 0x9d005508          0x174         372   
.rodata                 0x9d005680          0x2b8         696  Read-only const 
.text.SYS_Initialize    0x9d005938          0x150         336   
.text._DRV_USART_Resour 0x9d005a88          0x14c         332   
.text.UART6_SerialSetup 0x9d005bd4          0x144         324   
.text.fputc             0x9d005d18          0x144         324   
.text.SYS_TIME_Initiali 0x9d005e5c          0x13c         316   
.rodata                 0x9d005f98          0x130         304  Read-only const 
.text.CORE_TIMER_Handle 0x9d0060c8          0x130         304   
.text.TIMER_1_Handler   0x9d0061f8          0x130         304   
.text.INPUT_CAPTURE_1_H 0x9d006328          0x130         304   
.text.TIMER_2_Handler   0x9d006458          0x130         304   
.text.INPUT_CAPTURE_2_H 0x9d006588          0x130         304   
.text.INPUT_CAPTURE_3_H 0x9d0066b8          0x130         304   
.text.TIMER_4_Handler   0x9d0067e8          0x130         304   
.text.INPUT_CAPTURE_4_H 0x9d006918          0x130         304   
.text.I2C_5_Handler     0x9d006a48          0x130         304   
.text.UART_6_Handler    0x9d006b78          0x130         304   
.text.SYS_TIME_TimerObj 0x9d006ca8          0x130         304   
.text._DRV_USART_Resour 0x9d006dd8          0x12c         300   
.text._flsbuf           0x9d006f04          0x12c         300   
.text.dpcmp             0x9d007030          0x12c         300   
.text.SYS_TIME_AddToLis 0x9d00715c          0x114         276   
.text.I2C5_TransferSetu 0x9d007270          0x110         272   
.rodata                 0x9d007380          0x104         260  Read-only const 
.text.Bno055_init       0x9d007484          0x100         256   
.text._DRV_I2C_Resource 0x9d007584           0xf8         248   
.rodata                 0x9d007680           0xf0         240  Read-only const 
.text.__fixdfdi         0x9d007770           0xe8         232   
.text.MPU6050_init      0x9d007858           0xdc         220   
.text.general_exception 0x9d007934           0xdc         220   
.text._DRV_I2C_Resource 0x9d007a10           0xd4         212   
.text.DRV_I2C_Initializ 0x9d007ae4           0xc8         200   
.text.PID_Compute       0x9d007bac           0xb8         184   
.text.SYS_TIME_TimerSta 0x9d007c64           0xb4         180   
.text.fptodp            0x9d007d18           0xac         172   
.text                   0x9d007dc4           0xa8         168  App's exec code 
.text.libm              0x9d007e6c           0xa8         168   
.text.write             0x9d007f14           0x9c         156   
.text.APP_Initialize    0x9d007fb0           0x98         152   
.text.Update_ICAP1      0x9d008048           0x94         148   
.text.SYS_TIME_RemoveFr 0x9d0080dc           0x94         148   
.text.UART6_Initialize  0x9d008170           0x94         148   
.text.Update_ICAP2      0x9d008204           0x8c         140   
.text.Update_ICAP3      0x9d008290           0x8c         140   
.text.Update_ICAP4      0x9d00831c           0x8c         140   
.text.SYS_TIME_DelayMS  0x9d0083a8           0x8c         140   
.text.I2C5_WriteRead    0x9d008434           0x8c         140   
.text.__orderdf2        0x9d0084c0           0x8c         140   
.text.SYS_TIME_TimerAdd 0x9d00854c           0x88         136   
.text.UART6_ErrorGet    0x9d0085d4           0x88         136   
.text.I2C5_Read         0x9d00865c           0x88         136   
.text.I2C5_Write        0x9d0086e4           0x88         136   
.text.I2C5_WriteForced  0x9d00876c           0x88         136   
.text.Motors_Limit      0x9d0087f4           0x88         136   
.text.DRV_I2C_TransferE 0x9d00887c           0x84         132   
.text                   0x9d008900           0x84         132  App's exec code 
.text.SYS_TIME_TimerDes 0x9d008984           0x80         128   
.text.UART6_Read        0x9d008a04           0x80         128   
.text.__fixunsdfdi      0x9d008a84           0x80         128   
.text.UART6_Write       0x9d008b04           0x7c         124   
.text.fptoul            0x9d008b80           0x7c         124   
.text._DRV_I2C_DriverHa 0x9d008bfc           0x78         120   
.text._DRV_USART_Driver 0x9d008c74           0x78         120   
.text.print_uart        0x9d008cec           0x78         120   
.text.litodp            0x9d008d64           0x78         120   
.text.SYS_TIME_UpdateTi 0x9d008ddc           0x74         116   
.text._DRV_USART_ReadSu 0x9d008e50           0x74         116   
.text._DRV_USART_WriteS 0x9d008ec4           0x74         116   
.text.APP_I2C_Callback  0x9d008f38           0x70         112   
.text.SYS_TIME_GetTimer 0x9d008fa8           0x68         104   
.text.I2C5_Initialize   0x9d009010           0x68         104   
.text._sprintf_fF       0x9d009078           0x68         104   
.text.EVIC_Initialize   0x9d0090e0           0x64         100   
.text.CORETIMER_Start   0x9d009144           0x64         100   
.text                   0x9d0091a8           0x64         100  App's exec code 
.text.sitofp            0x9d00920c           0x60          96   
.text.INPUT_CAPTURE_4_I 0x9d00926c           0x5c          92   
.text.INPUT_CAPTURE_2_I 0x9d0092c8           0x5c          92   
.text.INPUT_CAPTURE_3_I 0x9d009324           0x5c          92   
.text.INPUT_CAPTURE_1_I 0x9d009380           0x5c          92   
.text.SYS_TIME_TimerPer 0x9d0093dc           0x5c          92   
.text._DRV_USART_RX_PLI 0x9d009438           0x5c          92   
.text.SYS_INT_SourceDis 0x9d009494           0x58          88   
.text.SYS_TIME_Resource 0x9d0094ec           0x54          84   
.text.main_entry        0x9d009540           0x54          84   
.text._general_exceptio 0x9d009594           0x50          80   
.text                   0x9d0095e4           0x4c          76  App's exec code 
.text._bootstrap_except 0x9d009630           0x48          72   
.vector_default         0x9d009678           0x48          72   
.text.Delay_ms          0x9d0096c0           0x44          68   
.text                   0x9d009704           0x88         136  App's exec code 
.text.SYS_TIME_Resource 0x9d00978c           0x40          64   
.text.CORE_TIMER_Interr 0x9d0097cc           0x40          64   
.text.TIMER_4_Interrupt 0x9d00980c           0x40          64   
.text.TMR2_Initialize   0x9d00984c           0x40          64   
.text.TIMER_2_Interrupt 0x9d00988c           0x40          64   
.text.TIMER_1_Interrupt 0x9d0098cc           0x40          64   
.text.Motors_Init       0x9d00990c           0x40          64   
.text.Motors_Update     0x9d00994c           0x40          64   
.text._printf_cdnopsuxX 0x9d00998c           0x40          64   
.text.GPIO_Initialize   0x9d0099cc           0x3c          60   
.text.SYS_TIME_DelayIsC 0x9d009a08           0x3c          60   
.text.TMR4_Initialize   0x9d009a44           0x3c          60   
.text.TMR1_Initialize   0x9d009a80           0x3c          60   
.text.PID_Init          0x9d009abc           0x38          56   
.text.DRV_I2C_WriteRead 0x9d009af4           0x38          56   
.text.SYS_TIME_GetElaps 0x9d009b2c           0x38          56   
.text._DRV_USART_Remove 0x9d009b64           0x38          56   
.text.SYS_TIME_Counter6 0x9d009b9c           0x34          52   
.text.CORETIMER_Stop    0x9d009bd0           0x34          52   
.text.TMR3_Initialize   0x9d009c04           0x34          52   
.text.WriteByte         0x9d009c38           0x30          48   
.text.GPIO_PortWrite    0x9d009c68           0x30          48   
.text.DRV_I2C_WriteTran 0x9d009c98           0x30          48   
.text.CORETIMER_Initial 0x9d009cc8           0x2c          44   
.text.EVIC_SourceEnable 0x9d009cf4           0x28          40   
.text.EVIC_SourceDisabl 0x9d009d1c           0x28          40   
.text.OCMP1_Initialize  0x9d009d44           0x28          40   
.text.OCMP4_Initialize  0x9d009d6c           0x28          40   
.text.OCMP2_Initialize  0x9d009d94           0x28          40   
.text.OCMP3_Initialize  0x9d009dbc           0x28          40   
.text.SYS_INT_SourceRes 0x9d009de4           0x28          40   
.text.EVIC_SourceIsEnab 0x9d009e0c           0x24          36   
.text._DRV_USART_TX_PLI 0x9d009e30           0x24          36   
.text.SYS_INT_Restore   0x9d009e54           0x24          36   
.text.ICAP4_Initialize  0x9d009e78           0x20          32   
.text.ICAP2_Initialize  0x9d009e98           0x20          32   
.text.ICAP3_Initialize  0x9d009eb8           0x20          32   
.text.main              0x9d009ed8           0x20          32   
.text.ICAP1_Initialize  0x9d009ef8           0x20          32   
.text.DRV_USART_WriteBu 0x9d009f18           0x20          32   
.text.SYS_INT_Disable   0x9d009f38           0x20          32   
.text.GPIO_PortRead     0x9d009f58           0x1c          28   
.text.GPIO_PortToggle   0x9d009f74           0x1c          28   
.text.CORETIMER_Compare 0x9d009f90           0x1c          28   
.text.I2C5_CallbackRegi 0x9d009fac           0x1c          28   
.rodata                 0x9d009fc8           0x1c          28  Read-only const 
.text.SYS_Tasks         0x9d009fe4           0x1c          28   
.text.CORETIMER_Counter 0x9d00a000           0x18          24   
.text                   0x9d00a018           0x18          24  App's exec code 
.text.ICAP4_Enable      0x9d00a030           0x14          20   
.text.ICAP2_Enable      0x9d00a044           0x14          20   
.text.ICAP3_Enable      0x9d00a058           0x14          20   
.text.ICAP1_Enable      0x9d00a06c           0x14          20   
.text.OCMP1_Enable      0x9d00a080           0x14          20   
.text.OCMP4_Enable      0x9d00a094           0x14          20   
.text.OCMP2_Enable      0x9d00a0a8           0x14          20   
.text.OCMP3_Enable      0x9d00a0bc           0x14          20   
.text.UART6_ReadCallbac 0x9d00a0d0           0x14          20   
.text.UART6_WriteCallba 0x9d00a0e4           0x14          20   
.text.I2C5_ErrorGet     0x9d00a0f8           0x14          20   
.text.TMR2_Start        0x9d00a10c           0x14          20   
.text.TMR3_Start        0x9d00a120           0x14          20   
.text.TMR3_Stop         0x9d00a134           0x14          20   
.text.__exception_handl 0x9d00a148            0xc          12   
.text.Update_Timer2     0x9d00a154            0xc          12   
.text.ICAP4_CallbackReg 0x9d00a160            0xc          12   
.text.ICAP2_CallbackReg 0x9d00a16c            0xc          12   
.text.ICAP3_CallbackReg 0x9d00a178            0xc          12   
.text.ICAP1_CallbackReg 0x9d00a184            0xc          12   
.text.UART6_ReadIsBusy  0x9d00a190            0xc          12   
.text.UART6_ReadCountGe 0x9d00a19c            0xc          12   
.text.UART6_WriteIsBusy 0x9d00a1a8            0xc          12   
.text.UART6_WriteCountG 0x9d00a1b4            0xc          12   
.text.CORETIMER_Callbac 0x9d00a1c0            0xc          12   
.text.CORETIMER_Frequen 0x9d00a1cc            0xc          12   
.rodata                 0x9d00a1d8            0xc          12  Read-only const 
.text.TMR2_CallbackRegi 0x9d00a1e4            0xc          12   
.text._mon_putc         0x9d00a1f0            0x8           8   
.text.CLK_Initialize    0x9d00a1f8            0x8           8   
.text.SYS_DMA_Addressin 0x9d00a200            0x8           8   
.text.SYS_DMA_DataWidth 0x9d00a208            0x8           8   
.text.SYS_DMA_ChannelTr 0x9d00a210            0x8           8   
.text._on_reset         0x9d00a218            0x8           8   
.text._on_bootstrap     0x9d00a220            0x8           8   
.rodata                 0x9d00a228           0x10          16  Read-only const 
      Total kseg0_program_mem used  :      0xa230       41520  7.9% of 0x80000

kseg0 Boot-Memory Usage
section                    address  length [bytes]      (dec)  Description
-------                 ----------  -------------------------  -----------
         Total kseg0_boot_mem used  :           0           0  <1% of 0x970

Exception-Memory Usage 
section                    address  length [bytes]      (dec)  Description
-------                 ----------  -------------------------  -----------
.app_excpt              0x9fc01180           0x10          16  General-Exception 
.vector_0               0x9fc01200            0x8           8  Interrupt Vector 0 
.vector_1               0x9fc01220            0x8           8  Interrupt Vector 1 
.vector_2               0x9fc01240            0x8           8  Interrupt Vector 2 
.vector_3               0x9fc01260            0x8           8  Interrupt Vector 3 
.vector_4               0x9fc01280            0x8           8  Interrupt Vector 4 
.vector_5               0x9fc012a0            0x8           8  Interrupt Vector 5 
.vector_6               0x9fc012c0            0x8           8  Interrupt Vector 6 
.vector_7               0x9fc012e0            0x8           8  Interrupt Vector 7 
.vector_8               0x9fc01300            0x8           8  Interrupt Vector 8 
.vector_9               0x9fc01320            0x8           8  Interrupt Vector 9 
.vector_10              0x9fc01340            0x8           8  Interrupt Vector 10 
.vector_11              0x9fc01360            0x8           8  Interrupt Vector 11 
.vector_12              0x9fc01380            0x8           8  Interrupt Vector 12 
.vector_13              0x9fc013a0            0x8           8  Interrupt Vector 13 
.vector_14              0x9fc013c0            0x8           8  Interrupt Vector 14 
.vector_15              0x9fc013e0            0x8           8  Interrupt Vector 15 
.vector_16              0x9fc01400            0x8           8  Interrupt Vector 16 
.vector_17              0x9fc01420            0x8           8  Interrupt Vector 17 
.vector_18              0x9fc01440            0x8           8  Interrupt Vector 18 
.vector_19              0x9fc01460            0x8           8  Interrupt Vector 19 
.vector_20              0x9fc01480            0x8           8  Interrupt Vector 20 
.vector_21              0x9fc014a0            0x8           8  Interrupt Vector 21 
.vector_22              0x9fc014c0            0x8           8  Interrupt Vector 22 
.vector_23              0x9fc014e0            0x8           8  Interrupt Vector 23 
.vector_24              0x9fc01500            0x8           8  Interrupt Vector 24 
.vector_25              0x9fc01520            0x8           8  Interrupt Vector 25 
.vector_26              0x9fc01540            0x8           8  Interrupt Vector 26 
.vector_27              0x9fc01560            0x8           8  Interrupt Vector 27 
.vector_28              0x9fc01580            0x8           8  Interrupt Vector 28 
.vector_29              0x9fc015a0            0x8           8  Interrupt Vector 29 
.vector_30              0x9fc015c0            0x8           8  Interrupt Vector 30 
.vector_31              0x9fc015e0            0x8           8  Interrupt Vector 31 
.vector_32              0x9fc01600            0x8           8  Interrupt Vector 32 
.vector_33              0x9fc01620            0x8           8  Interrupt Vector 33 
.vector_34              0x9fc01640            0x8           8  Interrupt Vector 34 
.vector_35              0x9fc01660            0x8           8  Interrupt Vector 35 
.vector_36              0x9fc01680            0x8           8  Interrupt Vector 36 
.vector_37              0x9fc016a0            0x8           8  Interrupt Vector 37 
.vector_38              0x9fc016c0            0x8           8  Interrupt Vector 38 
.vector_39              0x9fc016e0            0x8           8  Interrupt Vector 39 
.vector_40              0x9fc01700            0x8           8  Interrupt Vector 40 
.vector_41              0x9fc01720            0x8           8  Interrupt Vector 41 
.vector_42              0x9fc01740            0x8           8  Interrupt Vector 42 
.vector_43              0x9fc01760            0x8           8  Interrupt Vector 43 
.vector_44              0x9fc01780            0x8           8  Interrupt Vector 44 
.vector_45              0x9fc017a0            0x8           8  Interrupt Vector 45 
.vector_46              0x9fc017c0            0x8           8  Interrupt Vector 46 
.vector_47              0x9fc017e0            0x8           8  Interrupt Vector 47 
.vector_48              0x9fc01800            0x8           8  Interrupt Vector 48 
.vector_49              0x9fc01820            0x8           8  Interrupt Vector 49 
.vector_50              0x9fc01840            0x8           8  Interrupt Vector 50 
.vector_51              0x9fc01860            0x8           8  Interrupt Vector 51 
          Total exception_mem used  :       0x1b0         432  10.5% of 0x1000

kseg1 Boot-Memory Usage
section                    address  length [bytes]      (dec)  Description
-------                 ----------  -------------------------  -----------
.reset                  0xbfc00000          0x19c         412  Reset handler 
.bev_excpt              0xbfc00380           0x10          16  BEV-Exception 
         Total kseg1_boot_mem used  :       0x1ac         428  36.6% of 0x490
        --------------------------------------------------------------------------
         Total Program Memory used  :      0xa58c       42380  8.0% of 0x81e00
        --------------------------------------------------------------------------


kseg0 Data-Memory Usage
section                    address  length [bytes]      (dec)  Description
-------                 ----------  -------------------------  -----------
reserve_data_0_kseg0    0x80000000          0x200         512   
         Total kseg0_data_mem used  :       0x200         512  100.0% of 0x200

kseg1 Data-Memory Usage
section                    address  length [bytes]      (dec)  Description
-------                 ----------  -------------------------  -----------
reserve_data_0_kseg1    0xa0000000          0x200         512   
.sdata                  0xa0000200           0x20          32  Small init data 
.sbss                   0xa0000220           0xac         172  Small uninit data 
.bss                    0xa00002cc          0x4d8        1240  Uninitialized data 
.bss                    0xa00007a4          0x5a8        1448  Uninitialized data 
.data                   0xa0000d4c           0xa4         164  Initialized data 
.bss                    0xa0000df0           0xa4         164  Uninitialized data 
.bss                    0xa0000e94           0x78         120  Uninitialized data 
         Total kseg1_data_mem used  :       0xf0c        3852  2.9% of 0x20000
        --------------------------------------------------------------------------
            Total Data Memory used  :      0x110c        4364  3.3% of 0x20200
        --------------------------------------------------------------------------


Dynamic Data-Memory Reservation
section                    address  length [bytes]      (dec)  Description
-------                 ----------  -------------------------  -----------
heap                    0xa0000f10          0x200         512  Reserved for heap 
stack                   0xa0001128        0x1eec8      126664  Reserved for stack 

        --------------------------------------------------------------------------

Discarded input sections

 .text          0x00000000        0x0 d:/programs/xc32/bin/bin/../../lib/gcc/pic32mx/4.8.3/../../../../pic32mx/lib\software-debug-break.o
 .data          0x00000000        0x0 d:/programs/xc32/bin/bin/../../lib/gcc/pic32mx/4.8.3/../../../../pic32mx/lib\software-debug-break.o
 .bss           0x00000000        0x0 d:/programs/xc32/bin/bin/../../lib/gcc/pic32mx/4.8.3/../../../../pic32mx/lib\software-debug-break.o
 .text          0x00000000        0x0 build/default/debug/MPU6050.o
 .data          0x00000000        0x0 build/default/debug/MPU6050.o
 .bss           0x00000000        0x0 build/default/debug/MPU6050.o
 .reginfo       0x00000000       0x18 build/default/debug/MPU6050.o
 .text.MPU6050_getAccelGyro
                0x00000000       0x8c build/default/debug/MPU6050.o
 COMMON         0x00000000        0xe build/default/debug/MPU6050.o
 .text          0x00000000        0x0 build/default/debug/BNO055.o
 .data          0x00000000        0x0 build/default/debug/BNO055.o
 .bss           0x00000000        0x0 build/default/debug/BNO055.o
 .reginfo       0x00000000       0x18 build/default/debug/BNO055.o
 .text.getEulerAngles
                0x00000000       0xd0 build/default/debug/BNO055.o
 .text.getAngularVelocities
                0x00000000       0xb8 build/default/debug/BNO055.o
 .rodata        0x00000000        0x4 build/default/debug/BNO055.o
 .text          0x00000000        0x0 build/default/debug/_ext/1360937237/i2c_personal.o
 .data          0x00000000        0x0 build/default/debug/_ext/1360937237/i2c_personal.o
 .bss           0x00000000        0x0 build/default/debug/_ext/1360937237/i2c_personal.o
 .reginfo       0x00000000       0x18 build/default/debug/_ext/1360937237/i2c_personal.o
 .text.ReadMultipleBytes
                0x00000000       0x38 build/default/debug/_ext/1360937237/i2c_personal.o
 .text.Delay_us
                0x00000000       0x44 build/default/debug/_ext/1360937237/i2c_personal.o
 .text          0x00000000        0x0 build/default/debug/_ext/1360937237/interrupt_callbacks.o
 .data          0x00000000        0x0 build/default/debug/_ext/1360937237/interrupt_callbacks.o
 .bss           0x00000000        0x0 build/default/debug/_ext/1360937237/interrupt_callbacks.o
 .reginfo       0x00000000       0x18 build/default/debug/_ext/1360937237/interrupt_callbacks.o
 .text.UartErrorGet
                0x00000000       0x38 build/default/debug/_ext/1360937237/interrupt_callbacks.o
 .text          0x00000000        0x0 build/default/debug/_ext/1360937237/state_estimation.o
 .data          0x00000000        0x0 build/default/debug/_ext/1360937237/state_estimation.o
 .bss           0x00000000        0x0 build/default/debug/_ext/1360937237/state_estimation.o
 .reginfo       0x00000000       0x18 build/default/debug/_ext/1360937237/state_estimation.o
 .text          0x00000000        0x0 build/default/debug/_ext/1360937237/uart_bluetooth.o
 .data          0x00000000        0x0 build/default/debug/_ext/1360937237/uart_bluetooth.o
 .bss           0x00000000        0x0 build/default/debug/_ext/1360937237/uart_bluetooth.o
 .reginfo       0x00000000       0x18 build/default/debug/_ext/1360937237/uart_bluetooth.o
 .text.UART_BLUETOOTH_Initialize
                0x00000000        0x8 build/default/debug/_ext/1360937237/uart_bluetooth.o
 .text.UART_BLUETOOTH_Tasks
                0x00000000       0x18 build/default/debug/_ext/1360937237/uart_bluetooth.o
 .text          0x00000000        0x0 build/default/debug/_ext/1865301019/plib_icap4.o
 .data          0x00000000        0x0 build/default/debug/_ext/1865301019/plib_icap4.o
 .bss           0x00000000        0x0 build/default/debug/_ext/1865301019/plib_icap4.o
 .reginfo       0x00000000       0x18 build/default/debug/_ext/1865301019/plib_icap4.o
 .text.ICAP4_Disable
                0x00000000       0x14 build/default/debug/_ext/1865301019/plib_icap4.o
 .text.ICAP4_CaptureBufferRead
                0x00000000       0x10 build/default/debug/_ext/1865301019/plib_icap4.o
 .text.ICAP4_ErrorStatusGet
                0x00000000       0x10 build/default/debug/_ext/1865301019/plib_icap4.o
 .text          0x00000000        0x0 build/default/debug/_ext/1865301019/plib_icap2.o
 .data          0x00000000        0x0 build/default/debug/_ext/1865301019/plib_icap2.o
 .bss           0x00000000        0x0 build/default/debug/_ext/1865301019/plib_icap2.o
 .reginfo       0x00000000       0x18 build/default/debug/_ext/1865301019/plib_icap2.o
 .text.ICAP2_Disable
                0x00000000       0x14 build/default/debug/_ext/1865301019/plib_icap2.o
 .text.ICAP2_CaptureBufferRead
                0x00000000       0x10 build/default/debug/_ext/1865301019/plib_icap2.o
 .text.ICAP2_ErrorStatusGet
                0x00000000       0x10 build/default/debug/_ext/1865301019/plib_icap2.o
 .text          0x00000000        0x0 build/default/debug/_ext/1865301019/plib_icap3.o
 .data          0x00000000        0x0 build/default/debug/_ext/1865301019/plib_icap3.o
 .bss           0x00000000        0x0 build/default/debug/_ext/1865301019/plib_icap3.o
 .reginfo       0x00000000       0x18 build/default/debug/_ext/1865301019/plib_icap3.o
 .text.ICAP3_Disable
                0x00000000       0x14 build/default/debug/_ext/1865301019/plib_icap3.o
 .text.ICAP3_CaptureBufferRead
                0x00000000       0x10 build/default/debug/_ext/1865301019/plib_icap3.o
 .text.ICAP3_ErrorStatusGet
                0x00000000       0x10 build/default/debug/_ext/1865301019/plib_icap3.o
 .text          0x00000000        0x0 build/default/debug/_ext/1360937237/main.o
 .data          0x00000000        0x0 build/default/debug/_ext/1360937237/main.o
 .bss           0x00000000        0x0 build/default/debug/_ext/1360937237/main.o
 .reginfo       0x00000000       0x18 build/default/debug/_ext/1360937237/main.o
 .text          0x00000000        0x0 build/default/debug/_ext/1171490990/initialization.o
 .data          0x00000000        0x0 build/default/debug/_ext/1171490990/initialization.o
 .reginfo       0x00000000       0x18 build/default/debug/_ext/1171490990/initialization.o
 .text          0x00000000        0x0 build/default/debug/_ext/1171490990/interrupts.o
 .data          0x00000000        0x0 build/default/debug/_ext/1171490990/interrupts.o
 .bss           0x00000000        0x0 build/default/debug/_ext/1171490990/interrupts.o
 .reginfo       0x00000000       0x18 build/default/debug/_ext/1171490990/interrupts.o
 .text          0x00000000        0x0 build/default/debug/_ext/1171490990/exceptions.o
 .data          0x00000000        0x0 build/default/debug/_ext/1171490990/exceptions.o
 .bss           0x00000000        0x0 build/default/debug/_ext/1171490990/exceptions.o
 .reginfo       0x00000000       0x18 build/default/debug/_ext/1171490990/exceptions.o
 .text          0x00000000        0x0 build/default/debug/_ext/163028504/xc32_monitor.o
 .data          0x00000000        0x0 build/default/debug/_ext/163028504/xc32_monitor.o
 .bss           0x00000000        0x0 build/default/debug/_ext/163028504/xc32_monitor.o
 .reginfo       0x00000000       0x18 build/default/debug/_ext/163028504/xc32_monitor.o
 .text._mon_getc
                0x00000000        0x8 build/default/debug/_ext/163028504/xc32_monitor.o
 .text          0x00000000        0x0 build/default/debug/_ext/60165520/plib_clk.o
 .data          0x00000000        0x0 build/default/debug/_ext/60165520/plib_clk.o
 .bss           0x00000000        0x0 build/default/debug/_ext/60165520/plib_clk.o
 .reginfo       0x00000000       0x18 build/default/debug/_ext/60165520/plib_clk.o
 .text          0x00000000        0x0 build/default/debug/_ext/1865254177/plib_gpio.o
 .data          0x00000000        0x0 build/default/debug/_ext/1865254177/plib_gpio.o
 .bss           0x00000000        0x0 build/default/debug/_ext/1865254177/plib_gpio.o
 .reginfo       0x00000000       0x18 build/default/debug/_ext/1865254177/plib_gpio.o
 .text.GPIO_PortLatchRead
                0x00000000       0x1c build/default/debug/_ext/1865254177/plib_gpio.o
 .text.GPIO_PortSet
                0x00000000       0x1c build/default/debug/_ext/1865254177/plib_gpio.o
 .text.GPIO_PortClear
                0x00000000       0x1c build/default/debug/_ext/1865254177/plib_gpio.o
 .text.GPIO_PortInputEnable
                0x00000000       0x1c build/default/debug/_ext/1865254177/plib_gpio.o
 .text.GPIO_PortOutputEnable
                0x00000000       0x1c build/default/debug/_ext/1865254177/plib_gpio.o
 .text          0x00000000        0x0 build/default/debug/_ext/1865200349/plib_evic.o
 .data          0x00000000        0x0 build/default/debug/_ext/1865200349/plib_evic.o
 .bss           0x00000000        0x0 build/default/debug/_ext/1865200349/plib_evic.o
 .reginfo       0x00000000       0x18 build/default/debug/_ext/1865200349/plib_evic.o
 .text.EVIC_SourceStatusGet
                0x00000000       0x24 build/default/debug/_ext/1865200349/plib_evic.o
 .text.EVIC_SourceStatusSet
                0x00000000       0x28 build/default/debug/_ext/1865200349/plib_evic.o
 .text.EVIC_SourceStatusClear
                0x00000000       0x28 build/default/debug/_ext/1865200349/plib_evic.o
 .text          0x00000000        0x0 build/default/debug/_ext/1865301019/plib_icap1.o
 .data          0x00000000        0x0 build/default/debug/_ext/1865301019/plib_icap1.o
 .bss           0x00000000        0x0 build/default/debug/_ext/1865301019/plib_icap1.o
 .reginfo       0x00000000       0x18 build/default/debug/_ext/1865301019/plib_icap1.o
 .text.ICAP1_Disable
                0x00000000       0x14 build/default/debug/_ext/1865301019/plib_icap1.o
 .text.ICAP1_CaptureBufferRead
                0x00000000       0x10 build/default/debug/_ext/1865301019/plib_icap1.o
 .text.ICAP1_ErrorStatusGet
                0x00000000       0x10 build/default/debug/_ext/1865301019/plib_icap1.o
 .text          0x00000000        0x0 build/default/debug/_ext/1865480137/plib_ocmp1.o
 .data          0x00000000        0x0 build/default/debug/_ext/1865480137/plib_ocmp1.o
 .bss           0x00000000        0x0 build/default/debug/_ext/1865480137/plib_ocmp1.o
 .reginfo       0x00000000       0x18 build/default/debug/_ext/1865480137/plib_ocmp1.o
 .text.OCMP1_Disable
                0x00000000       0x14 build/default/debug/_ext/1865480137/plib_ocmp1.o
 .text.OCMP1_CompareValueGet
                0x00000000       0x10 build/default/debug/_ext/1865480137/plib_ocmp1.o
 .text.OCMP1_CompareSecondaryValueSet
                0x00000000       0x10 build/default/debug/_ext/1865480137/plib_ocmp1.o
 .text.OCMP1_CompareSecondaryValueGet
                0x00000000       0x10 build/default/debug/_ext/1865480137/plib_ocmp1.o
 .text          0x00000000        0x0 build/default/debug/_ext/1865480137/plib_ocmp4.o
 .data          0x00000000        0x0 build/default/debug/_ext/1865480137/plib_ocmp4.o
 .bss           0x00000000        0x0 build/default/debug/_ext/1865480137/plib_ocmp4.o
 .reginfo       0x00000000       0x18 build/default/debug/_ext/1865480137/plib_ocmp4.o
 .text.OCMP4_Disable
                0x00000000       0x14 build/default/debug/_ext/1865480137/plib_ocmp4.o
 .text.OCMP4_CompareValueGet
                0x00000000       0x10 build/default/debug/_ext/1865480137/plib_ocmp4.o
 .text.OCMP4_CompareSecondaryValueSet
                0x00000000       0x10 build/default/debug/_ext/1865480137/plib_ocmp4.o
 .text.OCMP4_CompareSecondaryValueGet
                0x00000000       0x10 build/default/debug/_ext/1865480137/plib_ocmp4.o
 .text          0x00000000        0x0 build/default/debug/_ext/1865480137/plib_ocmp2.o
 .data          0x00000000        0x0 build/default/debug/_ext/1865480137/plib_ocmp2.o
 .bss           0x00000000        0x0 build/default/debug/_ext/1865480137/plib_ocmp2.o
 .reginfo       0x00000000       0x18 build/default/debug/_ext/1865480137/plib_ocmp2.o
 .text.OCMP2_Disable
                0x00000000       0x14 build/default/debug/_ext/1865480137/plib_ocmp2.o
 .text.OCMP2_CompareValueGet
                0x00000000       0x10 build/default/debug/_ext/1865480137/plib_ocmp2.o
 .text.OCMP2_CompareSecondaryValueSet
                0x00000000       0x10 build/default/debug/_ext/1865480137/plib_ocmp2.o
 .text.OCMP2_CompareSecondaryValueGet
                0x00000000       0x10 build/default/debug/_ext/1865480137/plib_ocmp2.o
 .text          0x00000000        0x0 build/default/debug/_ext/158385033/drv_i2c.o
 .data          0x00000000        0x0 build/default/debug/_ext/158385033/drv_i2c.o
 .reginfo       0x00000000       0x18 build/default/debug/_ext/158385033/drv_i2c.o
 .text.DRV_I2C_Status
                0x00000000       0x18 build/default/debug/_ext/158385033/drv_i2c.o
 .text.DRV_I2C_Close
                0x00000000       0xe4 build/default/debug/_ext/158385033/drv_i2c.o
 .text.DRV_I2C_TransferSetup
                0x00000000       0x48 build/default/debug/_ext/158385033/drv_i2c.o
 .text.DRV_I2C_ErrorGet
                0x00000000       0x98 build/default/debug/_ext/158385033/drv_i2c.o
 .text.DRV_I2C_ReadTransferAdd
                0x00000000       0x38 build/default/debug/_ext/158385033/drv_i2c.o
 .text.DRV_I2C_ForcedWriteTransferAdd
                0x00000000       0x30 build/default/debug/_ext/158385033/drv_i2c.o
 .text.DRV_I2C_TransferStatusGet
                0x00000000       0xa4 build/default/debug/_ext/158385033/drv_i2c.o
 .text          0x00000000        0x0 build/default/debug/_ext/1865480137/plib_ocmp3.o
 .data          0x00000000        0x0 build/default/debug/_ext/1865480137/plib_ocmp3.o
 .bss           0x00000000        0x0 build/default/debug/_ext/1865480137/plib_ocmp3.o
 .reginfo       0x00000000       0x18 build/default/debug/_ext/1865480137/plib_ocmp3.o
 .text.OCMP3_Disable
                0x00000000       0x14 build/default/debug/_ext/1865480137/plib_ocmp3.o
 .text.OCMP3_CompareValueGet
                0x00000000       0x10 build/default/debug/_ext/1865480137/plib_ocmp3.o
 .text.OCMP3_CompareSecondaryValueSet
                0x00000000       0x10 build/default/debug/_ext/1865480137/plib_ocmp3.o
 .text.OCMP3_CompareSecondaryValueGet
                0x00000000       0x10 build/default/debug/_ext/1865480137/plib_ocmp3.o
 .text          0x00000000        0x0 build/default/debug/_ext/101884895/sys_time.o
 .data          0x00000000        0x0 build/default/debug/_ext/101884895/sys_time.o
 .reginfo       0x00000000       0x18 build/default/debug/_ext/101884895/sys_time.o
 .text.SYS_TIME_Deinitialize
                0x00000000       0x98 build/default/debug/_ext/101884895/sys_time.o
 .text.SYS_TIME_Status
                0x00000000       0x20 build/default/debug/_ext/101884895/sys_time.o
 .text.SYS_TIME_FrequencyGet
                0x00000000        0xc build/default/debug/_ext/101884895/sys_time.o
 .text.SYS_TIME_Counter64Get
                0x00000000       0x78 build/default/debug/_ext/101884895/sys_time.o
 .text.SYS_TIME_CounterGet
                0x00000000       0x1c build/default/debug/_ext/101884895/sys_time.o
 .text.SYS_TIME_CounterSet
                0x00000000       0x44 build/default/debug/_ext/101884895/sys_time.o
 .text.SYS_TIME_CountToUS
                0x00000000       0x88 build/default/debug/_ext/101884895/sys_time.o
 .text.SYS_TIME_CountToMS
                0x00000000       0x68 build/default/debug/_ext/101884895/sys_time.o
 .text.SYS_TIME_USToCount
                0x00000000       0x38 build/default/debug/_ext/101884895/sys_time.o
 .text.SYS_TIME_MSToCount
                0x00000000       0x34 build/default/debug/_ext/101884895/sys_time.o
 .text.SYS_TIME_TimerCreate
                0x00000000       0x38 build/default/debug/_ext/101884895/sys_time.o
 .text.SYS_TIME_TimerReload
                0x00000000      0x118 build/default/debug/_ext/101884895/sys_time.o
 .text.SYS_TIME_TimerStop
                0x00000000       0x84 build/default/debug/_ext/101884895/sys_time.o
 .text.SYS_TIME_TimerCounterGet
                0x00000000       0xfc build/default/debug/_ext/101884895/sys_time.o
 .text.SYS_TIME_DelayUS
                0x00000000       0x90 build/default/debug/_ext/101884895/sys_time.o
 .text.SYS_TIME_CallbackRegisterUS
                0x00000000       0xb4 build/default/debug/_ext/101884895/sys_time.o
 .text.SYS_TIME_CallbackRegisterMS
                0x00000000       0xb0 build/default/debug/_ext/101884895/sys_time.o
 .text          0x00000000        0x0 build/default/debug/_ext/1865657120/plib_uart6.o
 .data          0x00000000        0x0 build/default/debug/_ext/1865657120/plib_uart6.o
 .bss           0x00000000        0x0 build/default/debug/_ext/1865657120/plib_uart6.o
 .reginfo       0x00000000       0x18 build/default/debug/_ext/1865657120/plib_uart6.o
 .text          0x00000000        0x0 build/default/debug/_ext/1249264884/plib_coretimer.o
 .data          0x00000000        0x0 build/default/debug/_ext/1249264884/plib_coretimer.o
 .bss           0x00000000        0x0 build/default/debug/_ext/1249264884/plib_coretimer.o
 .reginfo       0x00000000       0x18 build/default/debug/_ext/1249264884/plib_coretimer.o
 .text.CORETIMER_DelayMs
                0x00000000       0x44 build/default/debug/_ext/1249264884/plib_coretimer.o
 .text.CORETIMER_DelayUs
                0x00000000       0x34 build/default/debug/_ext/1249264884/plib_coretimer.o
 .text          0x00000000        0x0 build/default/debug/_ext/60181895/plib_tmr4.o
 .data          0x00000000        0x0 build/default/debug/_ext/60181895/plib_tmr4.o
 .bss           0x00000000        0x0 build/default/debug/_ext/60181895/plib_tmr4.o
 .reginfo       0x00000000       0x18 build/default/debug/_ext/60181895/plib_tmr4.o
 .text.TMR4_Start
                0x00000000       0x14 build/default/debug/_ext/60181895/plib_tmr4.o
 .text.TMR4_Stop
                0x00000000       0x14 build/default/debug/_ext/60181895/plib_tmr4.o
 .text.TMR4_PeriodSet
                0x00000000       0x10 build/default/debug/_ext/60181895/plib_tmr4.o
 .text.TMR4_PeriodGet
                0x00000000       0x10 build/default/debug/_ext/60181895/plib_tmr4.o
 .text.TMR4_CounterGet
                0x00000000       0x10 build/default/debug/_ext/60181895/plib_tmr4.o
 .text.TMR4_FrequencyGet
                0x00000000        0xc build/default/debug/_ext/60181895/plib_tmr4.o
 .text.TMR4_InterruptEnable
                0x00000000       0x14 build/default/debug/_ext/60181895/plib_tmr4.o
 .text.TMR4_InterruptDisable
                0x00000000       0x14 build/default/debug/_ext/60181895/plib_tmr4.o
 .text.TMR4_CallbackRegister
                0x00000000        0xc build/default/debug/_ext/60181895/plib_tmr4.o
 .text          0x00000000        0x0 build/default/debug/_ext/869808652/drv_usart.o
 .data          0x00000000        0x0 build/default/debug/_ext/869808652/drv_usart.o
 .reginfo       0x00000000       0x18 build/default/debug/_ext/869808652/drv_usart.o
 .text._DRV_USART_GetDriverObj
                0x00000000       0x2c build/default/debug/_ext/869808652/drv_usart.o
 .text._DRV_USART_GetTransferObj
                0x00000000       0x68 build/default/debug/_ext/869808652/drv_usart.o
 .text._DRV_USART_RemoveClientTransfersFromList
                0x00000000       0x68 build/default/debug/_ext/869808652/drv_usart.o
 .text._DRV_USART_QueuePurge
                0x00000000       0x98 build/default/debug/_ext/869808652/drv_usart.o
 .text.DRV_USART_Status
                0x00000000       0x18 build/default/debug/_ext/869808652/drv_usart.o
 .text.DRV_USART_Close
                0x00000000       0xbc build/default/debug/_ext/869808652/drv_usart.o
 .text.DRV_USART_ErrorGet
                0x00000000       0x7c build/default/debug/_ext/869808652/drv_usart.o
 .text.DRV_USART_SerialSetup
                0x00000000      0x100 build/default/debug/_ext/869808652/drv_usart.o
 .text.DRV_USART_BufferEventHandlerSet
                0x00000000       0x84 build/default/debug/_ext/869808652/drv_usart.o
 .text.DRV_USART_ReadBufferAdd
                0x00000000       0x1c build/default/debug/_ext/869808652/drv_usart.o
 .text.DRV_USART_BufferCompletedBytesGet
                0x00000000       0xcc build/default/debug/_ext/869808652/drv_usart.o
 .text.DRV_USART_BufferStatusGet
                0x00000000       0xa0 build/default/debug/_ext/869808652/drv_usart.o
 .text.DRV_USART_WriteQueuePurge
                0x00000000       0x1c build/default/debug/_ext/869808652/drv_usart.o
 .text.DRV_USART_ReadQueuePurge
                0x00000000       0x1c build/default/debug/_ext/869808652/drv_usart.o
 .text          0x00000000        0x0 build/default/debug/_ext/60169480/plib_i2c5.o
 .data          0x00000000        0x0 build/default/debug/_ext/60169480/plib_i2c5.o
 .reginfo       0x00000000       0x18 build/default/debug/_ext/60169480/plib_i2c5.o
 .text.I2C5_IsBusy
                0x00000000       0x50 build/default/debug/_ext/60169480/plib_i2c5.o
 .text          0x00000000        0x0 build/default/debug/_ext/60181895/plib_tmr2.o
 .data          0x00000000        0x0 build/default/debug/_ext/60181895/plib_tmr2.o
 .bss           0x00000000        0x0 build/default/debug/_ext/60181895/plib_tmr2.o
 .reginfo       0x00000000       0x18 build/default/debug/_ext/60181895/plib_tmr2.o
 .text.TMR2_Stop
                0x00000000       0x14 build/default/debug/_ext/60181895/plib_tmr2.o
 .text.TMR2_PeriodSet
                0x00000000       0x10 build/default/debug/_ext/60181895/plib_tmr2.o
 .text.TMR2_PeriodGet
                0x00000000       0x10 build/default/debug/_ext/60181895/plib_tmr2.o
 .text.TMR2_CounterGet
                0x00000000       0x10 build/default/debug/_ext/60181895/plib_tmr2.o
 .text.TMR2_FrequencyGet
                0x00000000        0xc build/default/debug/_ext/60181895/plib_tmr2.o
 .text.TMR2_InterruptEnable
                0x00000000       0x14 build/default/debug/_ext/60181895/plib_tmr2.o
 .text.TMR2_InterruptDisable
                0x00000000       0x14 build/default/debug/_ext/60181895/plib_tmr2.o
 .text          0x00000000        0x0 build/default/debug/_ext/60181895/plib_tmr3.o
 .data          0x00000000        0x0 build/default/debug/_ext/60181895/plib_tmr3.o
 .bss           0x00000000        0x0 build/default/debug/_ext/60181895/plib_tmr3.o
 .reginfo       0x00000000       0x18 build/default/debug/_ext/60181895/plib_tmr3.o
 .text.TMR3_PeriodSet
                0x00000000       0x10 build/default/debug/_ext/60181895/plib_tmr3.o
 .text.TMR3_PeriodGet
                0x00000000       0x10 build/default/debug/_ext/60181895/plib_tmr3.o
 .text.TMR3_CounterGet
                0x00000000       0x10 build/default/debug/_ext/60181895/plib_tmr3.o
 .text.TMR3_FrequencyGet
                0x00000000        0xc build/default/debug/_ext/60181895/plib_tmr3.o
 .text          0x00000000        0x0 build/default/debug/_ext/1865638794/plib_tmr1.o
 .data          0x00000000        0x0 build/default/debug/_ext/1865638794/plib_tmr1.o
 .bss           0x00000000        0x0 build/default/debug/_ext/1865638794/plib_tmr1.o
 .reginfo       0x00000000       0x18 build/default/debug/_ext/1865638794/plib_tmr1.o
 .text.TMR1_Start
                0x00000000       0x14 build/default/debug/_ext/1865638794/plib_tmr1.o
 .text.TMR1_Stop
                0x00000000       0x14 build/default/debug/_ext/1865638794/plib_tmr1.o
 .text.TMR1_PeriodSet
                0x00000000       0x10 build/default/debug/_ext/1865638794/plib_tmr1.o
 .text.TMR1_PeriodGet
                0x00000000       0x10 build/default/debug/_ext/1865638794/plib_tmr1.o
 .text.TMR1_CounterGet
                0x00000000       0x10 build/default/debug/_ext/1865638794/plib_tmr1.o
 .text.TMR1_FrequencyGet
                0x00000000        0xc build/default/debug/_ext/1865638794/plib_tmr1.o
 .text.TMR1_InterruptEnable
                0x00000000       0x14 build/default/debug/_ext/1865638794/plib_tmr1.o
 .text.TMR1_InterruptDisable
                0x00000000       0x14 build/default/debug/_ext/1865638794/plib_tmr1.o
 .text.TMR1_CallbackRegister
                0x00000000        0xc build/default/debug/_ext/1865638794/plib_tmr1.o
 .text          0x00000000        0x0 build/default/debug/_ext/1881668453/sys_int.o
 .data          0x00000000        0x0 build/default/debug/_ext/1881668453/sys_int.o
 .bss           0x00000000        0x0 build/default/debug/_ext/1881668453/sys_int.o
 .reginfo       0x00000000       0x18 build/default/debug/_ext/1881668453/sys_int.o
 .text.SYS_INT_Enable
                0x00000000       0x18 build/default/debug/_ext/1881668453/sys_int.o
 .text          0x00000000        0x0 build/default/debug/_ext/14461671/sys_dma.o
 .data          0x00000000        0x0 build/default/debug/_ext/14461671/sys_dma.o
 .bss           0x00000000        0x0 build/default/debug/_ext/14461671/sys_dma.o
 .reginfo       0x00000000       0x18 build/default/debug/_ext/14461671/sys_dma.o
 .text          0x00000000        0x0 build/default/debug/_ext/1360937237/app.o
 .data          0x00000000       0x28 build/default/debug/_ext/1360937237/app.o
 .bss           0x00000000        0x0 build/default/debug/_ext/1360937237/app.o
 .reginfo       0x00000000       0x18 build/default/debug/_ext/1360937237/app.o
 .text          0x00000000        0x0 build/default/debug/_ext/1171490990/tasks.o
 .data          0x00000000        0x0 build/default/debug/_ext/1171490990/tasks.o
 .bss           0x00000000        0x0 build/default/debug/_ext/1171490990/tasks.o
 .reginfo       0x00000000       0x18 build/default/debug/_ext/1171490990/tasks.o
 .text          0x00000000        0x0 C:\Users\samfi\AppData\Local\Temp\ccuXFrqE.o
 .data          0x00000000        0x0 C:\Users\samfi\AppData\Local\Temp\ccuXFrqE.o
 .bss           0x00000000        0x0 C:\Users\samfi\AppData\Local\Temp\ccuXFrqE.o
 .reginfo       0x00000000       0x18 C:\Users\samfi\AppData\Local\Temp\ccuXFrqE.o
 .text          0x00000000        0x0 C:\Users\samfi\AppData\Local\Temp\ccU8psHa.o
 .data          0x00000000        0x0 C:\Users\samfi\AppData\Local\Temp\ccU8psHa.o
 .bss           0x00000000        0x0 C:\Users\samfi\AppData\Local\Temp\ccU8psHa.o
 .reginfo       0x00000000       0x18 C:\Users\samfi\AppData\Local\Temp\ccU8psHa.o
 .text          0x00000000        0x0 C:\Users\samfi\AppData\Local\Temp\ccIQ8Woh.o
 .data          0x00000000        0x0 C:\Users\samfi\AppData\Local\Temp\ccIQ8Woh.o
 .bss           0x00000000        0x0 C:\Users\samfi\AppData\Local\Temp\ccIQ8Woh.o
 .reginfo       0x00000000       0x18 C:\Users\samfi\AppData\Local\Temp\ccIQ8Woh.o
 .discard       0x00000000       0xd0 C:\Users\samfi\AppData\Local\Temp\ccIQ8Woh.o
 .data          0x00000000        0x0 d:/programs/xc32/bin/bin/../../lib/gcc/pic32mx/4.8.3/../../../../pic32mx/lib\pic32_software_reset.o
 .bss           0x00000000        0x0 d:/programs/xc32/bin/bin/../../lib/gcc/pic32mx/4.8.3/../../../../pic32mx/lib\pic32_software_reset.o
 .reginfo       0x00000000       0x18 d:/programs/xc32/bin/bin/../../lib/gcc/pic32mx/4.8.3/../../../../pic32mx/lib\pic32_software_reset.o
 .text          0x00000000        0x0 d:/programs/xc32/bin/bin/../../lib/gcc/pic32mx/4.8.3/../../../../pic32mx/lib/./proc/32MX795F512H\processor.o
 .data          0x00000000        0x0 d:/programs/xc32/bin/bin/../../lib/gcc/pic32mx/4.8.3/../../../../pic32mx/lib/./proc/32MX795F512H\processor.o
 .bss           0x00000000        0x0 d:/programs/xc32/bin/bin/../../lib/gcc/pic32mx/4.8.3/../../../../pic32mx/lib/./proc/32MX795F512H\processor.o
 .reginfo       0x00000000       0x18 d:/programs/xc32/bin/bin/../../lib/gcc/pic32mx/4.8.3/../../../../pic32mx/lib/./proc/32MX795F512H\processor.o
 .data          0x00000000        0x0 d:/programs/xc32/bin/bin/../../lib/gcc/pic32mx/4.8.3\libgcc.a(_udivdi3.o)
 .bss           0x00000000        0x0 d:/programs/xc32/bin/bin/../../lib/gcc/pic32mx/4.8.3\libgcc.a(_udivdi3.o)
 .reginfo       0x00000000       0x18 d:/programs/xc32/bin/bin/../../lib/gcc/pic32mx/4.8.3\libgcc.a(_udivdi3.o)
 .data          0x00000000        0x0 d:/programs/xc32/bin/bin/../../lib/gcc/pic32mx/4.8.3\libgcc.a(floatunsisf.o)
 .bss           0x00000000        0x0 d:/programs/xc32/bin/bin/../../lib/gcc/pic32mx/4.8.3\libgcc.a(floatunsisf.o)
 .reginfo       0x00000000       0x18 d:/programs/xc32/bin/bin/../../lib/gcc/pic32mx/4.8.3\libgcc.a(floatunsisf.o)
 .data          0x00000000        0x0 d:/programs/xc32/bin/bin/../../lib/gcc/pic32mx/4.8.3/../../../../pic32mx/lib\libpic32.a(memset.o)
 .bss           0x00000000        0x0 d:/programs/xc32/bin/bin/../../lib/gcc/pic32mx/4.8.3/../../../../pic32mx/lib\libpic32.a(memset.o)
 .reginfo       0x00000000       0x18 d:/programs/xc32/bin/bin/../../lib/gcc/pic32mx/4.8.3/../../../../pic32mx/lib\libpic32.a(memset.o)
 .text          0x00000000        0x0 d:/programs/xc32/bin/bin/../../lib/gcc/pic32mx/4.8.3/../../../../pic32mx/lib\libpic32.a(default-bootstrap-exception-handler.o)
 .data          0x00000000        0x0 d:/programs/xc32/bin/bin/../../lib/gcc/pic32mx/4.8.3/../../../../pic32mx/lib\libpic32.a(default-bootstrap-exception-handler.o)
 .bss           0x00000000        0x0 d:/programs/xc32/bin/bin/../../lib/gcc/pic32mx/4.8.3/../../../../pic32mx/lib\libpic32.a(default-bootstrap-exception-handler.o)
 .reginfo       0x00000000       0x18 d:/programs/xc32/bin/bin/../../lib/gcc/pic32mx/4.8.3/../../../../pic32mx/lib\libpic32.a(default-bootstrap-exception-handler.o)
 .text          0x00000000        0x0 d:/programs/xc32/bin/bin/../../lib/gcc/pic32mx/4.8.3/../../../../pic32mx/lib\libpic32.a(default-on-reset.o)
 .data          0x00000000        0x0 d:/programs/xc32/bin/bin/../../lib/gcc/pic32mx/4.8.3/../../../../pic32mx/lib\libpic32.a(default-on-reset.o)
 .bss           0x00000000        0x0 d:/programs/xc32/bin/bin/../../lib/gcc/pic32mx/4.8.3/../../../../pic32mx/lib\libpic32.a(default-on-reset.o)
 .reginfo       0x00000000       0x18 d:/programs/xc32/bin/bin/../../lib/gcc/pic32mx/4.8.3/../../../../pic32mx/lib\libpic32.a(default-on-reset.o)
 .text          0x00000000        0x0 d:/programs/xc32/bin/bin/../../lib/gcc/pic32mx/4.8.3/../../../../pic32mx/lib\libpic32.a(default-on-bootstrap.o)
 .data          0x00000000        0x0 d:/programs/xc32/bin/bin/../../lib/gcc/pic32mx/4.8.3/../../../../pic32mx/lib\libpic32.a(default-on-bootstrap.o)
 .bss           0x00000000        0x0 d:/programs/xc32/bin/bin/../../lib/gcc/pic32mx/4.8.3/../../../../pic32mx/lib\libpic32.a(default-on-bootstrap.o)
 .reginfo       0x00000000       0x18 d:/programs/xc32/bin/bin/../../lib/gcc/pic32mx/4.8.3/../../../../pic32mx/lib\libpic32.a(default-on-bootstrap.o)
 .data          0x00000000        0x0 d:/programs/xc32/bin/bin/../../lib/gcc/pic32mx/4.8.3/../../../../pic32mx/lib\libpic32.a(default-nmi-handler.o)
 .bss           0x00000000        0x0 d:/programs/xc32/bin/bin/../../lib/gcc/pic32mx/4.8.3/../../../../pic32mx/lib\libpic32.a(default-nmi-handler.o)
 .reginfo       0x00000000       0x18 d:/programs/xc32/bin/bin/../../lib/gcc/pic32mx/4.8.3/../../../../pic32mx/lib\libpic32.a(default-nmi-handler.o)
 .data          0x00000000        0x0 d:/programs/xc32/bin/bin/../../lib/gcc/pic32mx/4.8.3/../../../../pic32mx/lib\libpic32.a(pic32_data_init.o)
 .bss           0x00000000        0x0 d:/programs/xc32/bin/bin/../../lib/gcc/pic32mx/4.8.3/../../../../pic32mx/lib\libpic32.a(pic32_data_init.o)
 .reginfo       0x00000000       0x18 d:/programs/xc32/bin/bin/../../lib/gcc/pic32mx/4.8.3/../../../../pic32mx/lib\libpic32.a(pic32_data_init.o)
 .text          0x00000000        0x0 d:/programs/xc32/bin/bin/../../lib/gcc/pic32mx/4.8.3/../../../../pic32mx/lib\libpic32.a(general-exception.o)
 .data          0x00000000        0x0 d:/programs/xc32/bin/bin/../../lib/gcc/pic32mx/4.8.3/../../../../pic32mx/lib\libpic32.a(general-exception.o)
 .bss           0x00000000        0x0 d:/programs/xc32/bin/bin/../../lib/gcc/pic32mx/4.8.3/../../../../pic32mx/lib\libpic32.a(general-exception.o)
 .reginfo       0x00000000       0x18 d:/programs/xc32/bin/bin/../../lib/gcc/pic32mx/4.8.3/../../../../pic32mx/lib\libpic32.a(general-exception.o)
 .text          0x00000000        0x0 d:/programs/xc32/bin/bin/../../lib/gcc/pic32mx/4.8.3/../../../../pic32mx/lib\libpic32.a(vector1.o)
 .data          0x00000000        0x0 d:/programs/xc32/bin/bin/../../lib/gcc/pic32mx/4.8.3/../../../../pic32mx/lib\libpic32.a(vector1.o)
 .bss           0x00000000        0x0 d:/programs/xc32/bin/bin/../../lib/gcc/pic32mx/4.8.3/../../../../pic32mx/lib\libpic32.a(vector1.o)
 .reginfo       0x00000000       0x18 d:/programs/xc32/bin/bin/../../lib/gcc/pic32mx/4.8.3/../../../../pic32mx/lib\libpic32.a(vector1.o)
 .text          0x00000000        0x0 d:/programs/xc32/bin/bin/../../lib/gcc/pic32mx/4.8.3/../../../../pic32mx/lib\libpic32.a(vector2.o)
 .data          0x00000000        0x0 d:/programs/xc32/bin/bin/../../lib/gcc/pic32mx/4.8.3/../../../../pic32mx/lib\libpic32.a(vector2.o)
 .bss           0x00000000        0x0 d:/programs/xc32/bin/bin/../../lib/gcc/pic32mx/4.8.3/../../../../pic32mx/lib\libpic32.a(vector2.o)
 .reginfo       0x00000000       0x18 d:/programs/xc32/bin/bin/../../lib/gcc/pic32mx/4.8.3/../../../../pic32mx/lib\libpic32.a(vector2.o)
 .text          0x00000000        0x0 d:/programs/xc32/bin/bin/../../lib/gcc/pic32mx/4.8.3/../../../../pic32mx/lib\libpic32.a(vector3.o)
 .data          0x00000000        0x0 d:/programs/xc32/bin/bin/../../lib/gcc/pic32mx/4.8.3/../../../../pic32mx/lib\libpic32.a(vector3.o)
 .bss           0x00000000        0x0 d:/programs/xc32/bin/bin/../../lib/gcc/pic32mx/4.8.3/../../../../pic32mx/lib\libpic32.a(vector3.o)
 .reginfo       0x00000000       0x18 d:/programs/xc32/bin/bin/../../lib/gcc/pic32mx/4.8.3/../../../../pic32mx/lib\libpic32.a(vector3.o)
 .text          0x00000000        0x0 d:/programs/xc32/bin/bin/../../lib/gcc/pic32mx/4.8.3/../../../../pic32mx/lib\libpic32.a(vector6.o)
 .data          0x00000000        0x0 d:/programs/xc32/bin/bin/../../lib/gcc/pic32mx/4.8.3/../../../../pic32mx/lib\libpic32.a(vector6.o)
 .bss           0x00000000        0x0 d:/programs/xc32/bin/bin/../../lib/gcc/pic32mx/4.8.3/../../../../pic32mx/lib\libpic32.a(vector6.o)
 .reginfo       0x00000000       0x18 d:/programs/xc32/bin/bin/../../lib/gcc/pic32mx/4.8.3/../../../../pic32mx/lib\libpic32.a(vector6.o)
 .text          0x00000000        0x0 d:/programs/xc32/bin/bin/../../lib/gcc/pic32mx/4.8.3/../../../../pic32mx/lib\libpic32.a(vector7.o)
 .data          0x00000000        0x0 d:/programs/xc32/bin/bin/../../lib/gcc/pic32mx/4.8.3/../../../../pic32mx/lib\libpic32.a(vector7.o)
 .bss           0x00000000        0x0 d:/programs/xc32/bin/bin/../../lib/gcc/pic32mx/4.8.3/../../../../pic32mx/lib\libpic32.a(vector7.o)
 .reginfo       0x00000000       0x18 d:/programs/xc32/bin/bin/../../lib/gcc/pic32mx/4.8.3/../../../../pic32mx/lib\libpic32.a(vector7.o)
 .text          0x00000000        0x0 d:/programs/xc32/bin/bin/../../lib/gcc/pic32mx/4.8.3/../../../../pic32mx/lib\libpic32.a(vector10.o)
 .data          0x00000000        0x0 d:/programs/xc32/bin/bin/../../lib/gcc/pic32mx/4.8.3/../../../../pic32mx/lib\libpic32.a(vector10.o)
 .bss           0x00000000        0x0 d:/programs/xc32/bin/bin/../../lib/gcc/pic32mx/4.8.3/../../../../pic32mx/lib\libpic32.a(vector10.o)
 .reginfo       0x00000000       0x18 d:/programs/xc32/bin/bin/../../lib/gcc/pic32mx/4.8.3/../../../../pic32mx/lib\libpic32.a(vector10.o)
 .text          0x00000000        0x0 d:/programs/xc32/bin/bin/../../lib/gcc/pic32mx/4.8.3/../../../../pic32mx/lib\libpic32.a(vector11.o)
 .data          0x00000000        0x0 d:/programs/xc32/bin/bin/../../lib/gcc/pic32mx/4.8.3/../../../../pic32mx/lib\libpic32.a(vector11.o)
 .bss           0x00000000        0x0 d:/programs/xc32/bin/bin/../../lib/gcc/pic32mx/4.8.3/../../../../pic32mx/lib\libpic32.a(vector11.o)
 .reginfo       0x00000000       0x18 d:/programs/xc32/bin/bin/../../lib/gcc/pic32mx/4.8.3/../../../../pic32mx/lib\libpic32.a(vector11.o)
 .text          0x00000000        0x0 d:/programs/xc32/bin/bin/../../lib/gcc/pic32mx/4.8.3/../../../../pic32mx/lib\libpic32.a(vector12.o)
 .data          0x00000000        0x0 d:/programs/xc32/bin/bin/../../lib/gcc/pic32mx/4.8.3/../../../../pic32mx/lib\libpic32.a(vector12.o)
 .bss           0x00000000        0x0 d:/programs/xc32/bin/bin/../../lib/gcc/pic32mx/4.8.3/../../../../pic32mx/lib\libpic32.a(vector12.o)
 .reginfo       0x00000000       0x18 d:/programs/xc32/bin/bin/../../lib/gcc/pic32mx/4.8.3/../../../../pic32mx/lib\libpic32.a(vector12.o)
 .text          0x00000000        0x0 d:/programs/xc32/bin/bin/../../lib/gcc/pic32mx/4.8.3/../../../../pic32mx/lib\libpic32.a(vector14.o)
 .data          0x00000000        0x0 d:/programs/xc32/bin/bin/../../lib/gcc/pic32mx/4.8.3/../../../../pic32mx/lib\libpic32.a(vector14.o)
 .bss           0x00000000        0x0 d:/programs/xc32/bin/bin/../../lib/gcc/pic32mx/4.8.3/../../../../pic32mx/lib\libpic32.a(vector14.o)
 .reginfo       0x00000000       0x18 d:/programs/xc32/bin/bin/../../lib/gcc/pic32mx/4.8.3/../../../../pic32mx/lib\libpic32.a(vector14.o)
 .text          0x00000000        0x0 d:/programs/xc32/bin/bin/../../lib/gcc/pic32mx/4.8.3/../../../../pic32mx/lib\libpic32.a(vector15.o)
 .data          0x00000000        0x0 d:/programs/xc32/bin/bin/../../lib/gcc/pic32mx/4.8.3/../../../../pic32mx/lib\libpic32.a(vector15.o)
 .bss           0x00000000        0x0 d:/programs/xc32/bin/bin/../../lib/gcc/pic32mx/4.8.3/../../../../pic32mx/lib\libpic32.a(vector15.o)
 .reginfo       0x00000000       0x18 d:/programs/xc32/bin/bin/../../lib/gcc/pic32mx/4.8.3/../../../../pic32mx/lib\libpic32.a(vector15.o)
 .text          0x00000000        0x0 d:/programs/xc32/bin/bin/../../lib/gcc/pic32mx/4.8.3/../../../../pic32mx/lib\libpic32.a(vector18.o)
 .data          0x00000000        0x0 d:/programs/xc32/bin/bin/../../lib/gcc/pic32mx/4.8.3/../../../../pic32mx/lib\libpic32.a(vector18.o)
 .bss           0x00000000        0x0 d:/programs/xc32/bin/bin/../../lib/gcc/pic32mx/4.8.3/../../../../pic32mx/lib\libpic32.a(vector18.o)
 .reginfo       0x00000000       0x18 d:/programs/xc32/bin/bin/../../lib/gcc/pic32mx/4.8.3/../../../../pic32mx/lib\libpic32.a(vector18.o)
 .text          0x00000000        0x0 d:/programs/xc32/bin/bin/../../lib/gcc/pic32mx/4.8.3/../../../../pic32mx/lib\libpic32.a(vector19.o)
 .data          0x00000000        0x0 d:/programs/xc32/bin/bin/../../lib/gcc/pic32mx/4.8.3/../../../../pic32mx/lib\libpic32.a(vector19.o)
 .bss           0x00000000        0x0 d:/programs/xc32/bin/bin/../../lib/gcc/pic32mx/4.8.3/../../../../pic32mx/lib\libpic32.a(vector19.o)
 .reginfo       0x00000000       0x18 d:/programs/xc32/bin/bin/../../lib/gcc/pic32mx/4.8.3/../../../../pic32mx/lib\libpic32.a(vector19.o)
 .text          0x00000000        0x0 d:/programs/xc32/bin/bin/../../lib/gcc/pic32mx/4.8.3/../../../../pic32mx/lib\libpic32.a(vector20.o)
 .data          0x00000000        0x0 d:/programs/xc32/bin/bin/../../lib/gcc/pic32mx/4.8.3/../../../../pic32mx/lib\libpic32.a(vector20.o)
 .bss           0x00000000        0x0 d:/programs/xc32/bin/bin/../../lib/gcc/pic32mx/4.8.3/../../../../pic32mx/lib\libpic32.a(vector20.o)
 .reginfo       0x00000000       0x18 d:/programs/xc32/bin/bin/../../lib/gcc/pic32mx/4.8.3/../../../../pic32mx/lib\libpic32.a(vector20.o)
 .text          0x00000000        0x0 d:/programs/xc32/bin/bin/../../lib/gcc/pic32mx/4.8.3/../../../../pic32mx/lib\libpic32.a(vector21.o)
 .data          0x00000000        0x0 d:/programs/xc32/bin/bin/../../lib/gcc/pic32mx/4.8.3/../../../../pic32mx/lib\libpic32.a(vector21.o)
 .bss           0x00000000        0x0 d:/programs/xc32/bin/bin/../../lib/gcc/pic32mx/4.8.3/../../../../pic32mx/lib\libpic32.a(vector21.o)
 .reginfo       0x00000000       0x18 d:/programs/xc32/bin/bin/../../lib/gcc/pic32mx/4.8.3/../../../../pic32mx/lib\libpic32.a(vector21.o)
 .text          0x00000000        0x0 d:/programs/xc32/bin/bin/../../lib/gcc/pic32mx/4.8.3/../../../../pic32mx/lib\libpic32.a(vector22.o)
 .data          0x00000000        0x0 d:/programs/xc32/bin/bin/../../lib/gcc/pic32mx/4.8.3/../../../../pic32mx/lib\libpic32.a(vector22.o)
 .bss           0x00000000        0x0 d:/programs/xc32/bin/bin/../../lib/gcc/pic32mx/4.8.3/../../../../pic32mx/lib\libpic32.a(vector22.o)
 .reginfo       0x00000000       0x18 d:/programs/xc32/bin/bin/../../lib/gcc/pic32mx/4.8.3/../../../../pic32mx/lib\libpic32.a(vector22.o)
 .text          0x00000000        0x0 d:/programs/xc32/bin/bin/../../lib/gcc/pic32mx/4.8.3/../../../../pic32mx/lib\libpic32.a(vector23.o)
 .data          0x00000000        0x0 d:/programs/xc32/bin/bin/../../lib/gcc/pic32mx/4.8.3/../../../../pic32mx/lib\libpic32.a(vector23.o)
 .bss           0x00000000        0x0 d:/programs/xc32/bin/bin/../../lib/gcc/pic32mx/4.8.3/../../../../pic32mx/lib\libpic32.a(vector23.o)
 .reginfo       0x00000000       0x18 d:/programs/xc32/bin/bin/../../lib/gcc/pic32mx/4.8.3/../../../../pic32mx/lib\libpic32.a(vector23.o)
 .text          0x00000000        0x0 d:/programs/xc32/bin/bin/../../lib/gcc/pic32mx/4.8.3/../../../../pic32mx/lib\libpic32.a(vector24.o)
 .data          0x00000000        0x0 d:/programs/xc32/bin/bin/../../lib/gcc/pic32mx/4.8.3/../../../../pic32mx/lib\libpic32.a(vector24.o)
 .bss           0x00000000        0x0 d:/programs/xc32/bin/bin/../../lib/gcc/pic32mx/4.8.3/../../../../pic32mx/lib\libpic32.a(vector24.o)
 .reginfo       0x00000000       0x18 d:/programs/xc32/bin/bin/../../lib/gcc/pic32mx/4.8.3/../../../../pic32mx/lib\libpic32.a(vector24.o)
 .text          0x00000000        0x0 d:/programs/xc32/bin/bin/../../lib/gcc/pic32mx/4.8.3/../../../../pic32mx/lib\libpic32.a(vector25.o)
 .data          0x00000000        0x0 d:/programs/xc32/bin/bin/../../lib/gcc/pic32mx/4.8.3/../../../../pic32mx/lib\libpic32.a(vector25.o)
 .bss           0x00000000        0x0 d:/programs/xc32/bin/bin/../../lib/gcc/pic32mx/4.8.3/../../../../pic32mx/lib\libpic32.a(vector25.o)
 .reginfo       0x00000000       0x18 d:/programs/xc32/bin/bin/../../lib/gcc/pic32mx/4.8.3/../../../../pic32mx/lib\libpic32.a(vector25.o)
 .text          0x00000000        0x0 d:/programs/xc32/bin/bin/../../lib/gcc/pic32mx/4.8.3/../../../../pic32mx/lib\libpic32.a(vector26.o)
 .data          0x00000000        0x0 d:/programs/xc32/bin/bin/../../lib/gcc/pic32mx/4.8.3/../../../../pic32mx/lib\libpic32.a(vector26.o)
 .bss           0x00000000        0x0 d:/programs/xc32/bin/bin/../../lib/gcc/pic32mx/4.8.3/../../../../pic32mx/lib\libpic32.a(vector26.o)
 .reginfo       0x00000000       0x18 d:/programs/xc32/bin/bin/../../lib/gcc/pic32mx/4.8.3/../../../../pic32mx/lib\libpic32.a(vector26.o)
 .text          0x00000000        0x0 d:/programs/xc32/bin/bin/../../lib/gcc/pic32mx/4.8.3/../../../../pic32mx/lib\libpic32.a(vector27.o)
 .data          0x00000000        0x0 d:/programs/xc32/bin/bin/../../lib/gcc/pic32mx/4.8.3/../../../../pic32mx/lib\libpic32.a(vector27.o)
 .bss           0x00000000        0x0 d:/programs/xc32/bin/bin/../../lib/gcc/pic32mx/4.8.3/../../../../pic32mx/lib\libpic32.a(vector27.o)
 .reginfo       0x00000000       0x18 d:/programs/xc32/bin/bin/../../lib/gcc/pic32mx/4.8.3/../../../../pic32mx/lib\libpic32.a(vector27.o)
 .text          0x00000000        0x0 d:/programs/xc32/bin/bin/../../lib/gcc/pic32mx/4.8.3/../../../../pic32mx/lib\libpic32.a(vector28.o)
 .data          0x00000000        0x0 d:/programs/xc32/bin/bin/../../lib/gcc/pic32mx/4.8.3/../../../../pic32mx/lib\libpic32.a(vector28.o)
 .bss           0x00000000        0x0 d:/programs/xc32/bin/bin/../../lib/gcc/pic32mx/4.8.3/../../../../pic32mx/lib\libpic32.a(vector28.o)
 .reginfo       0x00000000       0x18 d:/programs/xc32/bin/bin/../../lib/gcc/pic32mx/4.8.3/../../../../pic32mx/lib\libpic32.a(vector28.o)
 .text          0x00000000        0x0 d:/programs/xc32/bin/bin/../../lib/gcc/pic32mx/4.8.3/../../../../pic32mx/lib\libpic32.a(vector29.o)
 .data          0x00000000        0x0 d:/programs/xc32/bin/bin/../../lib/gcc/pic32mx/4.8.3/../../../../pic32mx/lib\libpic32.a(vector29.o)
 .bss           0x00000000        0x0 d:/programs/xc32/bin/bin/../../lib/gcc/pic32mx/4.8.3/../../../../pic32mx/lib\libpic32.a(vector29.o)
 .reginfo       0x00000000       0x18 d:/programs/xc32/bin/bin/../../lib/gcc/pic32mx/4.8.3/../../../../pic32mx/lib\libpic32.a(vector29.o)
 .text          0x00000000        0x0 d:/programs/xc32/bin/bin/../../lib/gcc/pic32mx/4.8.3/../../../../pic32mx/lib\libpic32.a(vector30.o)
 .data          0x00000000        0x0 d:/programs/xc32/bin/bin/../../lib/gcc/pic32mx/4.8.3/../../../../pic32mx/lib\libpic32.a(vector30.o)
 .bss           0x00000000        0x0 d:/programs/xc32/bin/bin/../../lib/gcc/pic32mx/4.8.3/../../../../pic32mx/lib\libpic32.a(vector30.o)
 .reginfo       0x00000000       0x18 d:/programs/xc32/bin/bin/../../lib/gcc/pic32mx/4.8.3/../../../../pic32mx/lib\libpic32.a(vector30.o)
 .text          0x00000000        0x0 d:/programs/xc32/bin/bin/../../lib/gcc/pic32mx/4.8.3/../../../../pic32mx/lib\libpic32.a(vector31.o)
 .data          0x00000000        0x0 d:/programs/xc32/bin/bin/../../lib/gcc/pic32mx/4.8.3/../../../../pic32mx/lib\libpic32.a(vector31.o)
 .bss           0x00000000        0x0 d:/programs/xc32/bin/bin/../../lib/gcc/pic32mx/4.8.3/../../../../pic32mx/lib\libpic32.a(vector31.o)
 .reginfo       0x00000000       0x18 d:/programs/xc32/bin/bin/../../lib/gcc/pic32mx/4.8.3/../../../../pic32mx/lib\libpic32.a(vector31.o)
 .text          0x00000000        0x0 d:/programs/xc32/bin/bin/../../lib/gcc/pic32mx/4.8.3/../../../../pic32mx/lib\libpic32.a(vector33.o)
 .data          0x00000000        0x0 d:/programs/xc32/bin/bin/../../lib/gcc/pic32mx/4.8.3/../../../../pic32mx/lib\libpic32.a(vector33.o)
 .bss           0x00000000        0x0 d:/programs/xc32/bin/bin/../../lib/gcc/pic32mx/4.8.3/../../../../pic32mx/lib\libpic32.a(vector33.o)
 .reginfo       0x00000000       0x18 d:/programs/xc32/bin/bin/../../lib/gcc/pic32mx/4.8.3/../../../../pic32mx/lib\libpic32.a(vector33.o)
 .text          0x00000000        0x0 d:/programs/xc32/bin/bin/../../lib/gcc/pic32mx/4.8.3/../../../../pic32mx/lib\libpic32.a(vector34.o)
 .data          0x00000000        0x0 d:/programs/xc32/bin/bin/../../lib/gcc/pic32mx/4.8.3/../../../../pic32mx/lib\libpic32.a(vector34.o)
 .bss           0x00000000        0x0 d:/programs/xc32/bin/bin/../../lib/gcc/pic32mx/4.8.3/../../../../pic32mx/lib\libpic32.a(vector34.o)
 .reginfo       0x00000000       0x18 d:/programs/xc32/bin/bin/../../lib/gcc/pic32mx/4.8.3/../../../../pic32mx/lib\libpic32.a(vector34.o)
 .text          0x00000000        0x0 d:/programs/xc32/bin/bin/../../lib/gcc/pic32mx/4.8.3/../../../../pic32mx/lib\libpic32.a(vector35.o)
 .data          0x00000000        0x0 d:/programs/xc32/bin/bin/../../lib/gcc/pic32mx/4.8.3/../../../../pic32mx/lib\libpic32.a(vector35.o)
 .bss           0x00000000        0x0 d:/programs/xc32/bin/bin/../../lib/gcc/pic32mx/4.8.3/../../../../pic32mx/lib\libpic32.a(vector35.o)
 .reginfo       0x00000000       0x18 d:/programs/xc32/bin/bin/../../lib/gcc/pic32mx/4.8.3/../../../../pic32mx/lib\libpic32.a(vector35.o)
 .text          0x00000000        0x0 d:/programs/xc32/bin/bin/../../lib/gcc/pic32mx/4.8.3/../../../../pic32mx/lib\libpic32.a(vector36.o)
 .data          0x00000000        0x0 d:/programs/xc32/bin/bin/../../lib/gcc/pic32mx/4.8.3/../../../../pic32mx/lib\libpic32.a(vector36.o)
 .bss           0x00000000        0x0 d:/programs/xc32/bin/bin/../../lib/gcc/pic32mx/4.8.3/../../../../pic32mx/lib\libpic32.a(vector36.o)
 .reginfo       0x00000000       0x18 d:/programs/xc32/bin/bin/../../lib/gcc/pic32mx/4.8.3/../../../../pic32mx/lib\libpic32.a(vector36.o)
 .text          0x00000000        0x0 d:/programs/xc32/bin/bin/../../lib/gcc/pic32mx/4.8.3/../../../../pic32mx/lib\libpic32.a(vector37.o)
 .data          0x00000000        0x0 d:/programs/xc32/bin/bin/../../lib/gcc/pic32mx/4.8.3/../../../../pic32mx/lib\libpic32.a(vector37.o)
 .bss           0x00000000        0x0 d:/programs/xc32/bin/bin/../../lib/gcc/pic32mx/4.8.3/../../../../pic32mx/lib\libpic32.a(vector37.o)
 .reginfo       0x00000000       0x18 d:/programs/xc32/bin/bin/../../lib/gcc/pic32mx/4.8.3/../../../../pic32mx/lib\libpic32.a(vector37.o)
 .text          0x00000000        0x0 d:/programs/xc32/bin/bin/../../lib/gcc/pic32mx/4.8.3/../../../../pic32mx/lib\libpic32.a(vector38.o)
 .data          0x00000000        0x0 d:/programs/xc32/bin/bin/../../lib/gcc/pic32mx/4.8.3/../../../../pic32mx/lib\libpic32.a(vector38.o)
 .bss           0x00000000        0x0 d:/programs/xc32/bin/bin/../../lib/gcc/pic32mx/4.8.3/../../../../pic32mx/lib\libpic32.a(vector38.o)
 .reginfo       0x00000000       0x18 d:/programs/xc32/bin/bin/../../lib/gcc/pic32mx/4.8.3/../../../../pic32mx/lib\libpic32.a(vector38.o)
 .text          0x00000000        0x0 d:/programs/xc32/bin/bin/../../lib/gcc/pic32mx/4.8.3/../../../../pic32mx/lib\libpic32.a(vector39.o)
 .data          0x00000000        0x0 d:/programs/xc32/bin/bin/../../lib/gcc/pic32mx/4.8.3/../../../../pic32mx/lib\libpic32.a(vector39.o)
 .bss           0x00000000        0x0 d:/programs/xc32/bin/bin/../../lib/gcc/pic32mx/4.8.3/../../../../pic32mx/lib\libpic32.a(vector39.o)
 .reginfo       0x00000000       0x18 d:/programs/xc32/bin/bin/../../lib/gcc/pic32mx/4.8.3/../../../../pic32mx/lib\libpic32.a(vector39.o)
 .text          0x00000000        0x0 d:/programs/xc32/bin/bin/../../lib/gcc/pic32mx/4.8.3/../../../../pic32mx/lib\libpic32.a(vector40.o)
 .data          0x00000000        0x0 d:/programs/xc32/bin/bin/../../lib/gcc/pic32mx/4.8.3/../../../../pic32mx/lib\libpic32.a(vector40.o)
 .bss           0x00000000        0x0 d:/programs/xc32/bin/bin/../../lib/gcc/pic32mx/4.8.3/../../../../pic32mx/lib\libpic32.a(vector40.o)
 .reginfo       0x00000000       0x18 d:/programs/xc32/bin/bin/../../lib/gcc/pic32mx/4.8.3/../../../../pic32mx/lib\libpic32.a(vector40.o)
 .text          0x00000000        0x0 d:/programs/xc32/bin/bin/../../lib/gcc/pic32mx/4.8.3/../../../../pic32mx/lib\libpic32.a(vector41.o)
 .data          0x00000000        0x0 d:/programs/xc32/bin/bin/../../lib/gcc/pic32mx/4.8.3/../../../../pic32mx/lib\libpic32.a(vector41.o)
 .bss           0x00000000        0x0 d:/programs/xc32/bin/bin/../../lib/gcc/pic32mx/4.8.3/../../../../pic32mx/lib\libpic32.a(vector41.o)
 .reginfo       0x00000000       0x18 d:/programs/xc32/bin/bin/../../lib/gcc/pic32mx/4.8.3/../../../../pic32mx/lib\libpic32.a(vector41.o)
 .text          0x00000000        0x0 d:/programs/xc32/bin/bin/../../lib/gcc/pic32mx/4.8.3/../../../../pic32mx/lib\libpic32.a(vector42.o)
 .data          0x00000000        0x0 d:/programs/xc32/bin/bin/../../lib/gcc/pic32mx/4.8.3/../../../../pic32mx/lib\libpic32.a(vector42.o)
 .bss           0x00000000        0x0 d:/programs/xc32/bin/bin/../../lib/gcc/pic32mx/4.8.3/../../../../pic32mx/lib\libpic32.a(vector42.o)
 .reginfo       0x00000000       0x18 d:/programs/xc32/bin/bin/../../lib/gcc/pic32mx/4.8.3/../../../../pic32mx/lib\libpic32.a(vector42.o)
 .text          0x00000000        0x0 d:/programs/xc32/bin/bin/../../lib/gcc/pic32mx/4.8.3/../../../../pic32mx/lib\libpic32.a(vector43.o)
 .data          0x00000000        0x0 d:/programs/xc32/bin/bin/../../lib/gcc/pic32mx/4.8.3/../../../../pic32mx/lib\libpic32.a(vector43.o)
 .bss           0x00000000        0x0 d:/programs/xc32/bin/bin/../../lib/gcc/pic32mx/4.8.3/../../../../pic32mx/lib\libpic32.a(vector43.o)
 .reginfo       0x00000000       0x18 d:/programs/xc32/bin/bin/../../lib/gcc/pic32mx/4.8.3/../../../../pic32mx/lib\libpic32.a(vector43.o)
 .text          0x00000000        0x0 d:/programs/xc32/bin/bin/../../lib/gcc/pic32mx/4.8.3/../../../../pic32mx/lib\libpic32.a(vector44.o)
 .data          0x00000000        0x0 d:/programs/xc32/bin/bin/../../lib/gcc/pic32mx/4.8.3/../../../../pic32mx/lib\libpic32.a(vector44.o)
 .bss           0x00000000        0x0 d:/programs/xc32/bin/bin/../../lib/gcc/pic32mx/4.8.3/../../../../pic32mx/lib\libpic32.a(vector44.o)
 .reginfo       0x00000000       0x18 d:/programs/xc32/bin/bin/../../lib/gcc/pic32mx/4.8.3/../../../../pic32mx/lib\libpic32.a(vector44.o)
 .text          0x00000000        0x0 d:/programs/xc32/bin/bin/../../lib/gcc/pic32mx/4.8.3/../../../../pic32mx/lib\libpic32.a(vector45.o)
 .data          0x00000000        0x0 d:/programs/xc32/bin/bin/../../lib/gcc/pic32mx/4.8.3/../../../../pic32mx/lib\libpic32.a(vector45.o)
 .bss           0x00000000        0x0 d:/programs/xc32/bin/bin/../../lib/gcc/pic32mx/4.8.3/../../../../pic32mx/lib\libpic32.a(vector45.o)
 .reginfo       0x00000000       0x18 d:/programs/xc32/bin/bin/../../lib/gcc/pic32mx/4.8.3/../../../../pic32mx/lib\libpic32.a(vector45.o)
 .text          0x00000000        0x0 d:/programs/xc32/bin/bin/../../lib/gcc/pic32mx/4.8.3/../../../../pic32mx/lib\libpic32.a(vector46.o)
 .data          0x00000000        0x0 d:/programs/xc32/bin/bin/../../lib/gcc/pic32mx/4.8.3/../../../../pic32mx/lib\libpic32.a(vector46.o)
 .bss           0x00000000        0x0 d:/programs/xc32/bin/bin/../../lib/gcc/pic32mx/4.8.3/../../../../pic32mx/lib\libpic32.a(vector46.o)
 .reginfo       0x00000000       0x18 d:/programs/xc32/bin/bin/../../lib/gcc/pic32mx/4.8.3/../../../../pic32mx/lib\libpic32.a(vector46.o)
 .text          0x00000000        0x0 d:/programs/xc32/bin/bin/../../lib/gcc/pic32mx/4.8.3/../../../../pic32mx/lib\libpic32.a(vector47.o)
 .data          0x00000000        0x0 d:/programs/xc32/bin/bin/../../lib/gcc/pic32mx/4.8.3/../../../../pic32mx/lib\libpic32.a(vector47.o)
 .bss           0x00000000        0x0 d:/programs/xc32/bin/bin/../../lib/gcc/pic32mx/4.8.3/../../../../pic32mx/lib\libpic32.a(vector47.o)
 .reginfo       0x00000000       0x18 d:/programs/xc32/bin/bin/../../lib/gcc/pic32mx/4.8.3/../../../../pic32mx/lib\libpic32.a(vector47.o)
 .text          0x00000000        0x0 d:/programs/xc32/bin/bin/../../lib/gcc/pic32mx/4.8.3/../../../../pic32mx/lib\libpic32.a(vector48.o)
 .data          0x00000000        0x0 d:/programs/xc32/bin/bin/../../lib/gcc/pic32mx/4.8.3/../../../../pic32mx/lib\libpic32.a(vector48.o)
 .bss           0x00000000        0x0 d:/programs/xc32/bin/bin/../../lib/gcc/pic32mx/4.8.3/../../../../pic32mx/lib\libpic32.a(vector48.o)
 .reginfo       0x00000000       0x18 d:/programs/xc32/bin/bin/../../lib/gcc/pic32mx/4.8.3/../../../../pic32mx/lib\libpic32.a(vector48.o)
 .text          0x00000000        0x0 d:/programs/xc32/bin/bin/../../lib/gcc/pic32mx/4.8.3/../../../../pic32mx/lib\libpic32.a(vector49.o)
 .data          0x00000000        0x0 d:/programs/xc32/bin/bin/../../lib/gcc/pic32mx/4.8.3/../../../../pic32mx/lib\libpic32.a(vector49.o)
 .bss           0x00000000        0x0 d:/programs/xc32/bin/bin/../../lib/gcc/pic32mx/4.8.3/../../../../pic32mx/lib\libpic32.a(vector49.o)
 .reginfo       0x00000000       0x18 d:/programs/xc32/bin/bin/../../lib/gcc/pic32mx/4.8.3/../../../../pic32mx/lib\libpic32.a(vector49.o)
 .text          0x00000000        0x0 d:/programs/xc32/bin/bin/../../lib/gcc/pic32mx/4.8.3/../../../../pic32mx/lib\libpic32.a(vector51.o)
 .data          0x00000000        0x0 d:/programs/xc32/bin/bin/../../lib/gcc/pic32mx/4.8.3/../../../../pic32mx/lib\libpic32.a(vector51.o)
 .bss           0x00000000        0x0 d:/programs/xc32/bin/bin/../../lib/gcc/pic32mx/4.8.3/../../../../pic32mx/lib\libpic32.a(vector51.o)
 .reginfo       0x00000000       0x18 d:/programs/xc32/bin/bin/../../lib/gcc/pic32mx/4.8.3/../../../../pic32mx/lib\libpic32.a(vector51.o)
 .text          0x00000000        0x0 d:/programs/xc32/bin/bin/../../lib/gcc/pic32mx/4.8.3/../../../../pic32mx/lib\libpic32.a(defaultinterrupt.o)
 .data          0x00000000        0x0 d:/programs/xc32/bin/bin/../../lib/gcc/pic32mx/4.8.3/../../../../pic32mx/lib\libpic32.a(defaultinterrupt.o)
 .bss           0x00000000        0x0 d:/programs/xc32/bin/bin/../../lib/gcc/pic32mx/4.8.3/../../../../pic32mx/lib\libpic32.a(defaultinterrupt.o)
 .reginfo       0x00000000       0x18 d:/programs/xc32/bin/bin/../../lib/gcc/pic32mx/4.8.3/../../../../pic32mx/lib\libpic32.a(defaultinterrupt.o)
 .text          0x00000000        0x0 d:/programs/xc32/bin/bin/../../lib/gcc/pic32mx/4.8.3/../../../../pic32mx/lib\libc.a(printf_cdnopsuxX.eo)
 .data          0x00000000        0x0 d:/programs/xc32/bin/bin/../../lib/gcc/pic32mx/4.8.3/../../../../pic32mx/lib\libc.a(printf_cdnopsuxX.eo)
 .bss           0x00000000        0x0 d:/programs/xc32/bin/bin/../../lib/gcc/pic32mx/4.8.3/../../../../pic32mx/lib\libc.a(printf_cdnopsuxX.eo)
 .reginfo       0x00000000       0x18 d:/programs/xc32/bin/bin/../../lib/gcc/pic32mx/4.8.3/../../../../pic32mx/lib\libc.a(printf_cdnopsuxX.eo)
 .text          0x00000000        0x0 d:/programs/xc32/bin/bin/../../lib/gcc/pic32mx/4.8.3/../../../../pic32mx/lib\libc.a(sprintf_fF.eo)
 .data          0x00000000        0x0 d:/programs/xc32/bin/bin/../../lib/gcc/pic32mx/4.8.3/../../../../pic32mx/lib\libc.a(sprintf_fF.eo)
 .bss           0x00000000        0x0 d:/programs/xc32/bin/bin/../../lib/gcc/pic32mx/4.8.3/../../../../pic32mx/lib\libc.a(sprintf_fF.eo)
 .reginfo       0x00000000       0x18 d:/programs/xc32/bin/bin/../../lib/gcc/pic32mx/4.8.3/../../../../pic32mx/lib\libc.a(sprintf_fF.eo)
 .text          0x00000000        0x0 d:/programs/xc32/bin/bin/../../lib/gcc/pic32mx/4.8.3/../../../../pic32mx/lib\libc.a(_iob.o)
 .reginfo       0x00000000       0x18 d:/programs/xc32/bin/bin/../../lib/gcc/pic32mx/4.8.3/../../../../pic32mx/lib\libc.a(_iob.o)
 .text          0x00000000        0x0 d:/programs/xc32/bin/bin/../../lib/gcc/pic32mx/4.8.3/../../../../pic32mx/lib\libc.a(_fputc_simple.o)
 .data          0x00000000        0x0 d:/programs/xc32/bin/bin/../../lib/gcc/pic32mx/4.8.3/../../../../pic32mx/lib\libc.a(_fputc_simple.o)
 .bss           0x00000000        0x0 d:/programs/xc32/bin/bin/../../lib/gcc/pic32mx/4.8.3/../../../../pic32mx/lib\libc.a(_fputc_simple.o)
 .reginfo       0x00000000       0x18 d:/programs/xc32/bin/bin/../../lib/gcc/pic32mx/4.8.3/../../../../pic32mx/lib\libc.a(_fputc_simple.o)
 .text          0x00000000        0x0 d:/programs/xc32/bin/bin/../../lib/gcc/pic32mx/4.8.3/../../../../pic32mx/lib\libc.a(ctype.o)
 .data          0x00000000        0x0 d:/programs/xc32/bin/bin/../../lib/gcc/pic32mx/4.8.3/../../../../pic32mx/lib\libc.a(ctype.o)
 .bss           0x00000000        0x0 d:/programs/xc32/bin/bin/../../lib/gcc/pic32mx/4.8.3/../../../../pic32mx/lib\libc.a(ctype.o)
 .reginfo       0x00000000       0x18 d:/programs/xc32/bin/bin/../../lib/gcc/pic32mx/4.8.3/../../../../pic32mx/lib\libc.a(ctype.o)
 .text          0x00000000        0x0 d:/programs/xc32/bin/bin/../../lib/gcc/pic32mx/4.8.3/../../../../pic32mx/lib\libc.a(ldpowers.o)
 .data          0x00000000        0x0 d:/programs/xc32/bin/bin/../../lib/gcc/pic32mx/4.8.3/../../../../pic32mx/lib\libc.a(ldpowers.o)
 .bss           0x00000000        0x0 d:/programs/xc32/bin/bin/../../lib/gcc/pic32mx/4.8.3/../../../../pic32mx/lib\libc.a(ldpowers.o)
 .reginfo       0x00000000       0x18 d:/programs/xc32/bin/bin/../../lib/gcc/pic32mx/4.8.3/../../../../pic32mx/lib\libc.a(ldpowers.o)
 .text          0x00000000        0x0 d:/programs/xc32/bin/bin/../../lib/gcc/pic32mx/4.8.3/../../../../pic32mx/lib\libc.a(_flsbuf_simple.o)
 .data          0x00000000        0x0 d:/programs/xc32/bin/bin/../../lib/gcc/pic32mx/4.8.3/../../../../pic32mx/lib\libc.a(_flsbuf_simple.o)
 .bss           0x00000000        0x0 d:/programs/xc32/bin/bin/../../lib/gcc/pic32mx/4.8.3/../../../../pic32mx/lib\libc.a(_flsbuf_simple.o)
 .reginfo       0x00000000       0x18 d:/programs/xc32/bin/bin/../../lib/gcc/pic32mx/4.8.3/../../../../pic32mx/lib\libc.a(_flsbuf_simple.o)
 .text          0x00000000        0x0 d:/programs/xc32/bin/bin/../../lib/gcc/pic32mx/4.8.3/../../../../pic32mx/lib\libc.a(doprnt_cdfFnopsuxX.eo)
 .data          0x00000000        0x0 d:/programs/xc32/bin/bin/../../lib/gcc/pic32mx/4.8.3/../../../../pic32mx/lib\libc.a(doprnt_cdfFnopsuxX.eo)
 .bss           0x00000000        0x0 d:/programs/xc32/bin/bin/../../lib/gcc/pic32mx/4.8.3/../../../../pic32mx/lib\libc.a(doprnt_cdfFnopsuxX.eo)
 .reginfo       0x00000000       0x18 d:/programs/xc32/bin/bin/../../lib/gcc/pic32mx/4.8.3/../../../../pic32mx/lib\libc.a(doprnt_cdfFnopsuxX.eo)
 .text          0x00000000        0x0 d:/programs/xc32/bin/bin/../../lib/gcc/pic32mx/4.8.3/../../../../pic32mx/lib\libm.a(dpfrexp.o)
 .data          0x00000000        0x0 d:/programs/xc32/bin/bin/../../lib/gcc/pic32mx/4.8.3/../../../../pic32mx/lib\libm.a(dpfrexp.o)
 .bss           0x00000000        0x0 d:/programs/xc32/bin/bin/../../lib/gcc/pic32mx/4.8.3/../../../../pic32mx/lib\libm.a(dpfrexp.o)
 .reginfo       0x00000000       0x18 d:/programs/xc32/bin/bin/../../lib/gcc/pic32mx/4.8.3/../../../../pic32mx/lib\libm.a(dpfrexp.o)
 .text          0x00000000        0x0 d:/programs/xc32/bin/bin/../../lib/gcc/pic32mx/4.8.3/../../../../pic32mx/lib\libm.a(dp32div.o)
 .data          0x00000000        0x0 d:/programs/xc32/bin/bin/../../lib/gcc/pic32mx/4.8.3/../../../../pic32mx/lib\libm.a(dp32div.o)
 .bss           0x00000000        0x0 d:/programs/xc32/bin/bin/../../lib/gcc/pic32mx/4.8.3/../../../../pic32mx/lib\libm.a(dp32div.o)
 .reginfo       0x00000000       0x18 d:/programs/xc32/bin/bin/../../lib/gcc/pic32mx/4.8.3/../../../../pic32mx/lib\libm.a(dp32div.o)
 .text          0x00000000        0x0 d:/programs/xc32/bin/bin/../../lib/gcc/pic32mx/4.8.3/../../../../pic32mx/lib\libm.a(dp32mul.o)
 .data          0x00000000        0x0 d:/programs/xc32/bin/bin/../../lib/gcc/pic32mx/4.8.3/../../../../pic32mx/lib\libm.a(dp32mul.o)
 .bss           0x00000000        0x0 d:/programs/xc32/bin/bin/../../lib/gcc/pic32mx/4.8.3/../../../../pic32mx/lib\libm.a(dp32mul.o)
 .reginfo       0x00000000       0x18 d:/programs/xc32/bin/bin/../../lib/gcc/pic32mx/4.8.3/../../../../pic32mx/lib\libm.a(dp32mul.o)
 .text          0x00000000        0x0 d:/programs/xc32/bin/bin/../../lib/gcc/pic32mx/4.8.3/../../../../pic32mx/lib\libm.a(dp32subadd.o)
 .data          0x00000000        0x0 d:/programs/xc32/bin/bin/../../lib/gcc/pic32mx/4.8.3/../../../../pic32mx/lib\libm.a(dp32subadd.o)
 .bss           0x00000000        0x0 d:/programs/xc32/bin/bin/../../lib/gcc/pic32mx/4.8.3/../../../../pic32mx/lib\libm.a(dp32subadd.o)
 .reginfo       0x00000000       0x18 d:/programs/xc32/bin/bin/../../lib/gcc/pic32mx/4.8.3/../../../../pic32mx/lib\libm.a(dp32subadd.o)
 .text          0x00000000        0x0 d:/programs/xc32/bin/bin/../../lib/gcc/pic32mx/4.8.3/../../../../pic32mx/lib\libm.a(dpcmp.o)
 .data          0x00000000        0x0 d:/programs/xc32/bin/bin/../../lib/gcc/pic32mx/4.8.3/../../../../pic32mx/lib\libm.a(dpcmp.o)
 .bss           0x00000000        0x0 d:/programs/xc32/bin/bin/../../lib/gcc/pic32mx/4.8.3/../../../../pic32mx/lib\libm.a(dpcmp.o)
 .reginfo       0x00000000       0x18 d:/programs/xc32/bin/bin/../../lib/gcc/pic32mx/4.8.3/../../../../pic32mx/lib\libm.a(dpcmp.o)
 .text          0x00000000        0x0 d:/programs/xc32/bin/bin/../../lib/gcc/pic32mx/4.8.3/../../../../pic32mx/lib\libm.a(fp32div.o)
 .data          0x00000000        0x0 d:/programs/xc32/bin/bin/../../lib/gcc/pic32mx/4.8.3/../../../../pic32mx/lib\libm.a(fp32div.o)
 .bss           0x00000000        0x0 d:/programs/xc32/bin/bin/../../lib/gcc/pic32mx/4.8.3/../../../../pic32mx/lib\libm.a(fp32div.o)
 .reginfo       0x00000000       0x18 d:/programs/xc32/bin/bin/../../lib/gcc/pic32mx/4.8.3/../../../../pic32mx/lib\libm.a(fp32div.o)
 .text          0x00000000        0x0 d:/programs/xc32/bin/bin/../../lib/gcc/pic32mx/4.8.3/../../../../pic32mx/lib\libm.a(fp32mul.o)
 .data          0x00000000        0x0 d:/programs/xc32/bin/bin/../../lib/gcc/pic32mx/4.8.3/../../../../pic32mx/lib\libm.a(fp32mul.o)
 .bss           0x00000000        0x0 d:/programs/xc32/bin/bin/../../lib/gcc/pic32mx/4.8.3/../../../../pic32mx/lib\libm.a(fp32mul.o)
 .reginfo       0x00000000       0x18 d:/programs/xc32/bin/bin/../../lib/gcc/pic32mx/4.8.3/../../../../pic32mx/lib\libm.a(fp32mul.o)
 .text          0x00000000        0x0 d:/programs/xc32/bin/bin/../../lib/gcc/pic32mx/4.8.3/../../../../pic32mx/lib\libm.a(fp32subadd.o)
 .data          0x00000000        0x0 d:/programs/xc32/bin/bin/../../lib/gcc/pic32mx/4.8.3/../../../../pic32mx/lib\libm.a(fp32subadd.o)
 .bss           0x00000000        0x0 d:/programs/xc32/bin/bin/../../lib/gcc/pic32mx/4.8.3/../../../../pic32mx/lib\libm.a(fp32subadd.o)
 .reginfo       0x00000000       0x18 d:/programs/xc32/bin/bin/../../lib/gcc/pic32mx/4.8.3/../../../../pic32mx/lib\libm.a(fp32subadd.o)
 .text          0x00000000        0x0 d:/programs/xc32/bin/bin/../../lib/gcc/pic32mx/4.8.3/../../../../pic32mx/lib\libm.a(fptodp.o)
 .data          0x00000000        0x0 d:/programs/xc32/bin/bin/../../lib/gcc/pic32mx/4.8.3/../../../../pic32mx/lib\libm.a(fptodp.o)
 .bss           0x00000000        0x0 d:/programs/xc32/bin/bin/../../lib/gcc/pic32mx/4.8.3/../../../../pic32mx/lib\libm.a(fptodp.o)
 .reginfo       0x00000000       0x18 d:/programs/xc32/bin/bin/../../lib/gcc/pic32mx/4.8.3/../../../../pic32mx/lib\libm.a(fptodp.o)
 .text          0x00000000        0x0 d:/programs/xc32/bin/bin/../../lib/gcc/pic32mx/4.8.3/../../../../pic32mx/lib\libm.a(fptoul.o)
 .data          0x00000000        0x0 d:/programs/xc32/bin/bin/../../lib/gcc/pic32mx/4.8.3/../../../../pic32mx/lib\libm.a(fptoul.o)
 .bss           0x00000000        0x0 d:/programs/xc32/bin/bin/../../lib/gcc/pic32mx/4.8.3/../../../../pic32mx/lib\libm.a(fptoul.o)
 .reginfo       0x00000000       0x18 d:/programs/xc32/bin/bin/../../lib/gcc/pic32mx/4.8.3/../../../../pic32mx/lib\libm.a(fptoul.o)
 .text          0x00000000        0x0 d:/programs/xc32/bin/bin/../../lib/gcc/pic32mx/4.8.3/../../../../pic32mx/lib\libm.a(sitofp.o)
 .data          0x00000000        0x0 d:/programs/xc32/bin/bin/../../lib/gcc/pic32mx/4.8.3/../../../../pic32mx/lib\libm.a(sitofp.o)
 .bss           0x00000000        0x0 d:/programs/xc32/bin/bin/../../lib/gcc/pic32mx/4.8.3/../../../../pic32mx/lib\libm.a(sitofp.o)
 .reginfo       0x00000000       0x18 d:/programs/xc32/bin/bin/../../lib/gcc/pic32mx/4.8.3/../../../../pic32mx/lib\libm.a(sitofp.o)
 .text          0x00000000        0x0 d:/programs/xc32/bin/bin/../../lib/gcc/pic32mx/4.8.3/../../../../pic32mx/lib\libe.a(_fixunsdfdi.o)
 .data          0x00000000        0x0 d:/programs/xc32/bin/bin/../../lib/gcc/pic32mx/4.8.3/../../../../pic32mx/lib\libe.a(_fixunsdfdi.o)
 .bss           0x00000000        0x0 d:/programs/xc32/bin/bin/../../lib/gcc/pic32mx/4.8.3/../../../../pic32mx/lib\libe.a(_fixunsdfdi.o)
 .reginfo       0x00000000       0x18 d:/programs/xc32/bin/bin/../../lib/gcc/pic32mx/4.8.3/../../../../pic32mx/lib\libe.a(_fixunsdfdi.o)
 .text          0x00000000        0x0 d:/programs/xc32/bin/bin/../../lib/gcc/pic32mx/4.8.3/../../../../pic32mx/lib\libe.a(_orderdf2.o)
 .data          0x00000000        0x0 d:/programs/xc32/bin/bin/../../lib/gcc/pic32mx/4.8.3/../../../../pic32mx/lib\libe.a(_orderdf2.o)
 .bss           0x00000000        0x0 d:/programs/xc32/bin/bin/../../lib/gcc/pic32mx/4.8.3/../../../../pic32mx/lib\libe.a(_orderdf2.o)
 .reginfo       0x00000000       0x18 d:/programs/xc32/bin/bin/../../lib/gcc/pic32mx/4.8.3/../../../../pic32mx/lib\libe.a(_orderdf2.o)
 .text          0x00000000        0x0 d:/programs/xc32/bin/bin/../../lib/gcc/pic32mx/4.8.3/../../../../pic32mx/lib\libe.a(_fixdfdi.o)
 .data          0x00000000        0x0 d:/programs/xc32/bin/bin/../../lib/gcc/pic32mx/4.8.3/../../../../pic32mx/lib\libe.a(_fixdfdi.o)
 .bss           0x00000000        0x0 d:/programs/xc32/bin/bin/../../lib/gcc/pic32mx/4.8.3/../../../../pic32mx/lib\libe.a(_fixdfdi.o)
 .reginfo       0x00000000       0x18 d:/programs/xc32/bin/bin/../../lib/gcc/pic32mx/4.8.3/../../../../pic32mx/lib\libe.a(_fixdfdi.o)
 .data          0x00000000        0x0 d:/programs/xc32/bin/bin/../../lib/gcc/pic32mx/4.8.3\libgcc.a(_floatundidf.o)
 .bss           0x00000000        0x0 d:/programs/xc32/bin/bin/../../lib/gcc/pic32mx/4.8.3\libgcc.a(_floatundidf.o)
 .reginfo       0x00000000       0x18 d:/programs/xc32/bin/bin/../../lib/gcc/pic32mx/4.8.3\libgcc.a(_floatundidf.o)
 .data          0x00000000        0x0 d:/programs/xc32/bin/bin/../../lib/gcc/pic32mx/4.8.3\libgcc.a(_umoddi3.o)
 .bss           0x00000000        0x0 d:/programs/xc32/bin/bin/../../lib/gcc/pic32mx/4.8.3\libgcc.a(_umoddi3.o)
 .reginfo       0x00000000       0x18 d:/programs/xc32/bin/bin/../../lib/gcc/pic32mx/4.8.3\libgcc.a(_umoddi3.o)
 .data          0x00000000        0x0 d:/programs/xc32/bin/bin/../../lib/gcc/pic32mx/4.8.3\libgcc.a(floatunsidf.o)
 .bss           0x00000000        0x0 d:/programs/xc32/bin/bin/../../lib/gcc/pic32mx/4.8.3\libgcc.a(floatunsidf.o)
 .reginfo       0x00000000       0x18 d:/programs/xc32/bin/bin/../../lib/gcc/pic32mx/4.8.3\libgcc.a(floatunsidf.o)
 .text          0x00000000        0x0 d:/programs/xc32/bin/bin/../../lib/gcc/pic32mx/4.8.3/../../../../pic32mx/lib\libpic32.a(write.o)
 .data          0x00000000        0x0 d:/programs/xc32/bin/bin/../../lib/gcc/pic32mx/4.8.3/../../../../pic32mx/lib\libpic32.a(write.o)
 .bss           0x00000000        0x0 d:/programs/xc32/bin/bin/../../lib/gcc/pic32mx/4.8.3/../../../../pic32mx/lib\libpic32.a(write.o)
 .reginfo       0x00000000       0x18 d:/programs/xc32/bin/bin/../../lib/gcc/pic32mx/4.8.3/../../../../pic32mx/lib\libpic32.a(write.o)
 .text          0x00000000        0x0 d:/programs/xc32/bin/bin/../../lib/gcc/pic32mx/4.8.3/../../../../pic32mx/lib\libm.a(litodp.o)
 .data          0x00000000        0x0 d:/programs/xc32/bin/bin/../../lib/gcc/pic32mx/4.8.3/../../../../pic32mx/lib\libm.a(litodp.o)
 .bss           0x00000000        0x0 d:/programs/xc32/bin/bin/../../lib/gcc/pic32mx/4.8.3/../../../../pic32mx/lib\libm.a(litodp.o)
 .reginfo       0x00000000       0x18 d:/programs/xc32/bin/bin/../../lib/gcc/pic32mx/4.8.3/../../../../pic32mx/lib\libm.a(litodp.o)

Memory Configuration

Name             Origin             Length             Attributes
kseg0_data_mem   0x80000000         0x00000200
kseg1_data_mem   0xa0000000         0x00020000         w !x
kseg0_boot_mem   0x9fc00490         0x00000970
kseg1_boot_mem   0xbfc00000         0x00000490
kseg0_program_mem 0x9d000000         0x00080000         xr
exception_mem    0x9fc01000         0x00001000
debug_exec_mem   0xbfc02000         0x00000ff0
config3          0xbfc02ff0         0x00000004
config2          0xbfc02ff4         0x00000004
config1          0xbfc02ff8         0x00000004
config0          0xbfc02ffc         0x00000004
sfrs             0xbf800000         0x00100000
configsfrs       0xbfc02ff0         0x00000010
*default*        0x00000000         0xffffffff

Linker script and memory map


reserve_data_0_kseg0
                0x80000000      0x200
                0x80000000        0x2 SHORT 0x0
                0x000001fd                . = 0x1fd
 *fill*         0x80000002      0x1fb 
                0x80000200                . = ALIGN (0x4)
 *fill*         0x800001fd        0x3 

reserve_data_0_kseg1
                0xa0000000      0x200
                0xa0000000        0x2 SHORT 0x0
                0x000001fd                . = 0x1fd
 *fill*         0xa0000002      0x1fb 
                0xa0000200                . = ALIGN (0x4)
 *fill*         0xa00001fd        0x3 

reserve_boot_0x1fc02000_kseg0
                0x9fc02000      0xff0
                0x9fc02000        0x2 SHORT 0x0
                0x00000500                . = 0x500
 *fill*         0x9fc02002      0x4fe 
                0x9fc02500                . = ALIGN (0x4)
                0x9fc02500        0x2 SHORT 0x0
                0x00000ff0                . = 0xff0
 *fill*         0x9fc02502      0xaee 
                0x9fc02ff0                . = ALIGN (0x4)

reserve_boot_0x1fc02000_kseg1
                0xbfc02000      0xff0
                0xbfc02000        0x2 SHORT 0x0
                0x00000500                . = 0x500
 *fill*         0xbfc02002      0x4fe 
                0xbfc02500                . = ALIGN (0x4)
                0xbfc02500        0x2 SHORT 0x0
                0x00000ff0                . = 0xff0
 *fill*         0xbfc02502      0xaee 
                0xbfc02ff0                . = ALIGN (0x4)
LOAD d:/programs/xc32/bin/bin/../../lib/gcc/pic32mx/4.8.3/../../../../pic32mx/lib\software-debug-break.o
LOAD build/default/debug/MPU6050.o
LOAD build/default/debug/BNO055.o
LOAD build/default/debug/_ext/1360937237/i2c_personal.o
LOAD build/default/debug/_ext/1360937237/interrupt_callbacks.o
LOAD build/default/debug/_ext/1360937237/state_estimation.o
LOAD build/default/debug/_ext/1360937237/uart_bluetooth.o
LOAD build/default/debug/_ext/1865301019/plib_icap4.o
LOAD build/default/debug/_ext/1865301019/plib_icap2.o
LOAD build/default/debug/_ext/1865301019/plib_icap3.o
LOAD build/default/debug/_ext/1360937237/main.o
LOAD build/default/debug/_ext/1171490990/initialization.o
LOAD build/default/debug/_ext/1171490990/interrupts.o
LOAD build/default/debug/_ext/1171490990/exceptions.o
LOAD build/default/debug/_ext/163028504/xc32_monitor.o
LOAD build/default/debug/_ext/60165520/plib_clk.o
LOAD build/default/debug/_ext/1865254177/plib_gpio.o
LOAD build/default/debug/_ext/1865200349/plib_evic.o
LOAD build/default/debug/_ext/1865301019/plib_icap1.o
LOAD build/default/debug/_ext/1865480137/plib_ocmp1.o
LOAD build/default/debug/_ext/1865480137/plib_ocmp4.o
LOAD build/default/debug/_ext/1865480137/plib_ocmp2.o
LOAD build/default/debug/_ext/158385033/drv_i2c.o
LOAD build/default/debug/_ext/1865480137/plib_ocmp3.o
LOAD build/default/debug/_ext/101884895/sys_time.o
LOAD build/default/debug/_ext/1865657120/plib_uart6.o
LOAD build/default/debug/_ext/1249264884/plib_coretimer.o
LOAD build/default/debug/_ext/60181895/plib_tmr4.o
LOAD build/default/debug/_ext/869808652/drv_usart.o
LOAD build/default/debug/_ext/60169480/plib_i2c5.o
LOAD build/default/debug/_ext/60181895/plib_tmr2.o
LOAD build/default/debug/_ext/60181895/plib_tmr3.o
LOAD build/default/debug/_ext/1865638794/plib_tmr1.o
LOAD build/default/debug/_ext/1881668453/sys_int.o
LOAD build/default/debug/_ext/14461671/sys_dma.o
LOAD build/default/debug/_ext/1360937237/app.o
LOAD build/default/debug/_ext/1171490990/tasks.o
                0x00000001                __MPLAB_BUILD = 0x1
                0x00000001                __MPLAB_DEBUG = 0x1
                0x00000001                __DEBUG = 0x1
                0x00000200                _min_heap_size = 0x200
LOAD C:\Users\samfi\AppData\Local\Temp\ccuXFrqE.o
LOAD C:\Users\samfi\AppData\Local\Temp\ccU8psHa.o
LOAD C:\Users\samfi\AppData\Local\Temp\ccIQ8Woh.o
LOAD d:/programs/xc32/bin/bin/../../lib/gcc/pic32mx/4.8.3/../../../../pic32mx/lib\pic32_software_reset.o
                0x00000400                PROVIDE (_min_stack_size, 0x400)
START GROUP
LOAD d:/programs/xc32/bin/bin/../../lib/gcc/pic32mx/4.8.3/../../../../pic32mx/lib/./proc/32MX795F512H\processor.o
END GROUP
START GROUP
LOAD libmchp_peripheral.a
END GROUP
START GROUP
LOAD libmchp_peripheral_32MX795F512H.a
END GROUP
                0x00000001                PROVIDE (_vector_spacing, 0x1)
                0x9fc01000                PROVIDE (_ebase_address, 0x9fc01000)
                0xbfc00000                _RESET_ADDR = 0xbfc00000
                0xbfc00380                _BEV_EXCPT_ADDR = 0xbfc00380
                0xbfc00480                _DBG_EXCPT_ADDR = 0xbfc00480
                0xbfc02000                _DBG_CODE_ADDR = 0xbfc02000
                0x00000ff0                _DBG_CODE_SIZE = 0xff0
                0x9fc01180                _GEN_EXCPT_ADDR = (_ebase_address + 0x180)

.config_BFC02FF0
                0xbfc02ff0        0x4
 *(.config_BFC02FF0)
 .config_BFC02FF0
                0xbfc02ff0        0x4 build/default/debug/_ext/1171490990/initialization.o

.config_BFC02FF4
                0xbfc02ff4        0x4
 *(.config_BFC02FF4)
 .config_BFC02FF4
                0xbfc02ff4        0x4 build/default/debug/_ext/1171490990/initialization.o

.config_BFC02FF8
                0xbfc02ff8        0x4
 *(.config_BFC02FF8)
 .config_BFC02FF8
                0xbfc02ff8        0x4 build/default/debug/_ext/1171490990/initialization.o

.config_BFC02FFC
                0xbfc02ffc        0x4
 *(.config_BFC02FFC)
 .config_BFC02FFC
                0xbfc02ffc        0x4 build/default/debug/_ext/1171490990/initialization.o
                0xbfc02000                PROVIDE (_DBG_CODE_ADDR, 0xbfc02000)
                0x00000ff0                PROVIDE (_DBG_CODE_SIZE, 0xff0)

.reset          0xbfc00000      0x19c
 *(.reset)
 .reset         0xbfc00000        0x8 C:\Users\samfi\AppData\Local\Temp\ccuXFrqE.o
                0xbfc00000                _reset
 *(.reset.startup)
 .reset.startup
                0xbfc00008      0x194 C:\Users\samfi\AppData\Local\Temp\ccuXFrqE.o
                0xbfc00008                _startup

.bev_excpt      0xbfc00380       0x10
 *(.bev_handler)
 .bev_handler   0xbfc00380       0x10 C:\Users\samfi\AppData\Local\Temp\ccuXFrqE.o

.dbg_excpt      0xbfc00480        0x0
                0xbfc00480                . = (. + DEFINED (_DEBUGGER)?0x8:0x0)

.dbg_code       0xbfc02000        0x0
                0xbfc02000                . = (. + DEFINED (_DEBUGGER)?_DBG_CODE_SIZE:0x0)

.app_excpt      0x9fc01180       0x10
 *(.gen_handler)
 .gen_handler   0x9fc01180       0x10 C:\Users\samfi\AppData\Local\Temp\ccuXFrqE.o

.vector_0       0x9fc01200        0x8
 *(.vector_0)
 .vector_0      0x9fc01200        0x8 build/default/debug/_ext/1171490990/interrupts.o
                0x9fc01200                __vector_dispatch_0
                0x00000001                ASSERT (((_vector_spacing == 0x0) || (SIZEOF (.vector_0) <= (_vector_spacing << 0x5))), function at exception vector 0 too large)

.vector_1       0x9fc01220        0x8
 *(.vector_1)
 .vector_1      0x9fc01220        0x8 d:/programs/xc32/bin/bin/../../lib/gcc/pic32mx/4.8.3/../../../../pic32mx/lib\libpic32.a(vector1.o)
                0x9fc01220                __vector_dispatch_1
                0x00000001                ASSERT (((_vector_spacing == 0x0) || (SIZEOF (.vector_1) <= (_vector_spacing << 0x5))), function at exception vector 1 too large)

.vector_2       0x9fc01240        0x8
 *(.vector_2)
 .vector_2      0x9fc01240        0x8 d:/programs/xc32/bin/bin/../../lib/gcc/pic32mx/4.8.3/../../../../pic32mx/lib\libpic32.a(vector2.o)
                0x9fc01240                __vector_dispatch_2
                0x00000001                ASSERT (((_vector_spacing == 0x0) || (SIZEOF (.vector_2) <= (_vector_spacing << 0x5))), function at exception vector 2 too large)

.vector_3       0x9fc01260        0x8
 *(.vector_3)
 .vector_3      0x9fc01260        0x8 d:/programs/xc32/bin/bin/../../lib/gcc/pic32mx/4.8.3/../../../../pic32mx/lib\libpic32.a(vector3.o)
                0x9fc01260                __vector_dispatch_3
                0x00000001                ASSERT (((_vector_spacing == 0x0) || (SIZEOF (.vector_3) <= (_vector_spacing << 0x5))), function at exception vector 3 too large)

.vector_4       0x9fc01280        0x8
 *(.vector_4)
 .vector_4      0x9fc01280        0x8 build/default/debug/_ext/1171490990/interrupts.o
                0x9fc01280                __vector_dispatch_4
                0x00000001                ASSERT (((_vector_spacing == 0x0) || (SIZEOF (.vector_4) <= (_vector_spacing << 0x5))), function at exception vector 4 too large)

.vector_5       0x9fc012a0        0x8
 *(.vector_5)
 .vector_5      0x9fc012a0        0x8 build/default/debug/_ext/1171490990/interrupts.o
                0x9fc012a0                __vector_dispatch_5
                0x00000001                ASSERT (((_vector_spacing == 0x0) || (SIZEOF (.vector_5) <= (_vector_spacing << 0x5))), function at exception vector 5 too large)

.vector_6       0x9fc012c0        0x8
 *(.vector_6)
 .vector_6      0x9fc012c0        0x8 d:/programs/xc32/bin/bin/../../lib/gcc/pic32mx/4.8.3/../../../../pic32mx/lib\libpic32.a(vector6.o)
                0x9fc012c0                __vector_dispatch_6
                0x00000001                ASSERT (((_vector_spacing == 0x0) || (SIZEOF (.vector_6) <= (_vector_spacing << 0x5))), function at exception vector 6 too large)

.vector_7       0x9fc012e0        0x8
 *(.vector_7)
 .vector_7      0x9fc012e0        0x8 d:/programs/xc32/bin/bin/../../lib/gcc/pic32mx/4.8.3/../../../../pic32mx/lib\libpic32.a(vector7.o)
                0x9fc012e0                __vector_dispatch_7
                0x00000001                ASSERT (((_vector_spacing == 0x0) || (SIZEOF (.vector_7) <= (_vector_spacing << 0x5))), function at exception vector 7 too large)

.vector_8       0x9fc01300        0x8
 *(.vector_8)
 .vector_8      0x9fc01300        0x8 build/default/debug/_ext/1171490990/interrupts.o
                0x9fc01300                __vector_dispatch_8
                0x00000001                ASSERT (((_vector_spacing == 0x0) || (SIZEOF (.vector_8) <= (_vector_spacing << 0x5))), function at exception vector 8 too large)

.vector_9       0x9fc01320        0x8
 *(.vector_9)
 .vector_9      0x9fc01320        0x8 build/default/debug/_ext/1171490990/interrupts.o
                0x9fc01320                __vector_dispatch_9
                0x00000001                ASSERT (((_vector_spacing == 0x0) || (SIZEOF (.vector_9) <= (_vector_spacing << 0x5))), function at exception vector 9 too large)

.vector_10      0x9fc01340        0x8
 *(.vector_10)
 .vector_10     0x9fc01340        0x8 d:/programs/xc32/bin/bin/../../lib/gcc/pic32mx/4.8.3/../../../../pic32mx/lib\libpic32.a(vector10.o)
                0x9fc01340                __vector_dispatch_10
                0x00000001                ASSERT (((_vector_spacing == 0x0) || (SIZEOF (.vector_10) <= (_vector_spacing << 0x5))), function at exception vector 10 too large)

.vector_11      0x9fc01360        0x8
 *(.vector_11)
 .vector_11     0x9fc01360        0x8 d:/programs/xc32/bin/bin/../../lib/gcc/pic32mx/4.8.3/../../../../pic32mx/lib\libpic32.a(vector11.o)
                0x9fc01360                __vector_dispatch_11
                0x00000001                ASSERT (((_vector_spacing == 0x0) || (SIZEOF (.vector_11) <= (_vector_spacing << 0x5))), function at exception vector 11 too large)

.vector_12      0x9fc01380        0x8
 *(.vector_12)
 .vector_12     0x9fc01380        0x8 d:/programs/xc32/bin/bin/../../lib/gcc/pic32mx/4.8.3/../../../../pic32mx/lib\libpic32.a(vector12.o)
                0x9fc01380                __vector_dispatch_12
                0x00000001                ASSERT (((_vector_spacing == 0x0) || (SIZEOF (.vector_12) <= (_vector_spacing << 0x5))), function at exception vector 12 too large)

.vector_13      0x9fc013a0        0x8
 *(.vector_13)
 .vector_13     0x9fc013a0        0x8 build/default/debug/_ext/1171490990/interrupts.o
                0x9fc013a0                __vector_dispatch_13
                0x00000001                ASSERT (((_vector_spacing == 0x0) || (SIZEOF (.vector_13) <= (_vector_spacing << 0x5))), function at exception vector 13 too large)

.vector_14      0x9fc013c0        0x8
 *(.vector_14)
 .vector_14     0x9fc013c0        0x8 d:/programs/xc32/bin/bin/../../lib/gcc/pic32mx/4.8.3/../../../../pic32mx/lib\libpic32.a(vector14.o)
                0x9fc013c0                __vector_dispatch_14
                0x00000001                ASSERT (((_vector_spacing == 0x0) || (SIZEOF (.vector_14) <= (_vector_spacing << 0x5))), function at exception vector 14 too large)

.vector_15      0x9fc013e0        0x8
 *(.vector_15)
 .vector_15     0x9fc013e0        0x8 d:/programs/xc32/bin/bin/../../lib/gcc/pic32mx/4.8.3/../../../../pic32mx/lib\libpic32.a(vector15.o)
                0x9fc013e0                __vector_dispatch_15
                0x00000001                ASSERT (((_vector_spacing == 0x0) || (SIZEOF (.vector_15) <= (_vector_spacing << 0x5))), function at exception vector 15 too large)

.vector_16      0x9fc01400        0x8
 *(.vector_16)
 .vector_16     0x9fc01400        0x8 build/default/debug/_ext/1171490990/interrupts.o
                0x9fc01400                __vector_dispatch_16
                0x00000001                ASSERT (((_vector_spacing == 0x0) || (SIZEOF (.vector_16) <= (_vector_spacing << 0x5))), function at exception vector 16 too large)

.vector_17      0x9fc01420        0x8
 *(.vector_17)
 .vector_17     0x9fc01420        0x8 build/default/debug/_ext/1171490990/interrupts.o
                0x9fc01420                __vector_dispatch_17
                0x00000001                ASSERT (((_vector_spacing == 0x0) || (SIZEOF (.vector_17) <= (_vector_spacing << 0x5))), function at exception vector 17 too large)

.vector_18      0x9fc01440        0x8
 *(.vector_18)
 .vector_18     0x9fc01440        0x8 d:/programs/xc32/bin/bin/../../lib/gcc/pic32mx/4.8.3/../../../../pic32mx/lib\libpic32.a(vector18.o)
                0x9fc01440                __vector_dispatch_18
                0x00000001                ASSERT (((_vector_spacing == 0x0) || (SIZEOF (.vector_18) <= (_vector_spacing << 0x5))), function at exception vector 18 too large)

.vector_19      0x9fc01460        0x8
 *(.vector_19)
 .vector_19     0x9fc01460        0x8 d:/programs/xc32/bin/bin/../../lib/gcc/pic32mx/4.8.3/../../../../pic32mx/lib\libpic32.a(vector19.o)
                0x9fc01460                __vector_dispatch_19
                0x00000001                ASSERT (((_vector_spacing == 0x0) || (SIZEOF (.vector_19) <= (_vector_spacing << 0x5))), function at exception vector 19 too large)

.vector_20      0x9fc01480        0x8
 *(.vector_20)
 .vector_20     0x9fc01480        0x8 d:/programs/xc32/bin/bin/../../lib/gcc/pic32mx/4.8.3/../../../../pic32mx/lib\libpic32.a(vector20.o)
                0x9fc01480                __vector_dispatch_20
                0x00000001                ASSERT (((_vector_spacing == 0x0) || (SIZEOF (.vector_20) <= (_vector_spacing << 0x5))), function at exception vector 20 too large)

.vector_21      0x9fc014a0        0x8
 *(.vector_21)
 .vector_21     0x9fc014a0        0x8 d:/programs/xc32/bin/bin/../../lib/gcc/pic32mx/4.8.3/../../../../pic32mx/lib\libpic32.a(vector21.o)
                0x9fc014a0                __vector_dispatch_21
                0x00000001                ASSERT (((_vector_spacing == 0x0) || (SIZEOF (.vector_21) <= (_vector_spacing << 0x5))), function at exception vector 21 too large)

.vector_22      0x9fc014c0        0x8
 *(.vector_22)
 .vector_22     0x9fc014c0        0x8 d:/programs/xc32/bin/bin/../../lib/gcc/pic32mx/4.8.3/../../../../pic32mx/lib\libpic32.a(vector22.o)
                0x9fc014c0                __vector_dispatch_22
                0x00000001                ASSERT (((_vector_spacing == 0x0) || (SIZEOF (.vector_22) <= (_vector_spacing << 0x5))), function at exception vector 22 too large)

.vector_23      0x9fc014e0        0x8
 *(.vector_23)
 .vector_23     0x9fc014e0        0x8 d:/programs/xc32/bin/bin/../../lib/gcc/pic32mx/4.8.3/../../../../pic32mx/lib\libpic32.a(vector23.o)
                0x9fc014e0                __vector_dispatch_23
                0x00000001                ASSERT (((_vector_spacing == 0x0) || (SIZEOF (.vector_23) <= (_vector_spacing << 0x5))), function at exception vector 23 too large)

.vector_24      0x9fc01500        0x8
 *(.vector_24)
 .vector_24     0x9fc01500        0x8 d:/programs/xc32/bin/bin/../../lib/gcc/pic32mx/4.8.3/../../../../pic32mx/lib\libpic32.a(vector24.o)
                0x9fc01500                __vector_dispatch_24
                0x00000001                ASSERT (((_vector_spacing == 0x0) || (SIZEOF (.vector_24) <= (_vector_spacing << 0x5))), function at exception vector 24 too large)

.vector_25      0x9fc01520        0x8
 *(.vector_25)
 .vector_25     0x9fc01520        0x8 d:/programs/xc32/bin/bin/../../lib/gcc/pic32mx/4.8.3/../../../../pic32mx/lib\libpic32.a(vector25.o)
                0x9fc01520                __vector_dispatch_25
                0x00000001                ASSERT (((_vector_spacing == 0x0) || (SIZEOF (.vector_25) <= (_vector_spacing << 0x5))), function at exception vector 25 too large)

.vector_26      0x9fc01540        0x8
 *(.vector_26)
 .vector_26     0x9fc01540        0x8 d:/programs/xc32/bin/bin/../../lib/gcc/pic32mx/4.8.3/../../../../pic32mx/lib\libpic32.a(vector26.o)
                0x9fc01540                __vector_dispatch_26
                0x00000001                ASSERT (((_vector_spacing == 0x0) || (SIZEOF (.vector_26) <= (_vector_spacing << 0x5))), function at exception vector 26 too large)

.vector_27      0x9fc01560        0x8
 *(.vector_27)
 .vector_27     0x9fc01560        0x8 d:/programs/xc32/bin/bin/../../lib/gcc/pic32mx/4.8.3/../../../../pic32mx/lib\libpic32.a(vector27.o)
                0x9fc01560                __vector_dispatch_27
                0x00000001                ASSERT (((_vector_spacing == 0x0) || (SIZEOF (.vector_27) <= (_vector_spacing << 0x5))), function at exception vector 27 too large)

.vector_28      0x9fc01580        0x8
 *(.vector_28)
 .vector_28     0x9fc01580        0x8 d:/programs/xc32/bin/bin/../../lib/gcc/pic32mx/4.8.3/../../../../pic32mx/lib\libpic32.a(vector28.o)
                0x9fc01580                __vector_dispatch_28
                0x00000001                ASSERT (((_vector_spacing == 0x0) || (SIZEOF (.vector_28) <= (_vector_spacing << 0x5))), function at exception vector 28 too large)

.vector_29      0x9fc015a0        0x8
 *(.vector_29)
 .vector_29     0x9fc015a0        0x8 d:/programs/xc32/bin/bin/../../lib/gcc/pic32mx/4.8.3/../../../../pic32mx/lib\libpic32.a(vector29.o)
                0x9fc015a0                __vector_dispatch_29
                0x00000001                ASSERT (((_vector_spacing == 0x0) || (SIZEOF (.vector_29) <= (_vector_spacing << 0x5))), function at exception vector 29 too large)

.vector_30      0x9fc015c0        0x8
 *(.vector_30)
 .vector_30     0x9fc015c0        0x8 d:/programs/xc32/bin/bin/../../lib/gcc/pic32mx/4.8.3/../../../../pic32mx/lib\libpic32.a(vector30.o)
                0x9fc015c0                __vector_dispatch_30
                0x00000001                ASSERT (((_vector_spacing == 0x0) || (SIZEOF (.vector_30) <= (_vector_spacing << 0x5))), function at exception vector 30 too large)

.vector_31      0x9fc015e0        0x8
 *(.vector_31)
 .vector_31     0x9fc015e0        0x8 d:/programs/xc32/bin/bin/../../lib/gcc/pic32mx/4.8.3/../../../../pic32mx/lib\libpic32.a(vector31.o)
                0x9fc015e0                __vector_dispatch_31
                0x00000001                ASSERT (((_vector_spacing == 0x0) || (SIZEOF (.vector_31) <= (_vector_spacing << 0x5))), function at exception vector 31 too large)

.vector_32      0x9fc01600        0x8
 *(.vector_32)
 .vector_32     0x9fc01600        0x8 build/default/debug/_ext/1171490990/interrupts.o
                0x9fc01600                __vector_dispatch_32
                0x00000001                ASSERT (((_vector_spacing == 0x0) || (SIZEOF (.vector_32) <= (_vector_spacing << 0x5))), function at exception vector 32 too large)

.vector_33      0x9fc01620        0x8
 *(.vector_33)
 .vector_33     0x9fc01620        0x8 d:/programs/xc32/bin/bin/../../lib/gcc/pic32mx/4.8.3/../../../../pic32mx/lib\libpic32.a(vector33.o)
                0x9fc01620                __vector_dispatch_33
                0x00000001                ASSERT (((_vector_spacing == 0x0) || (SIZEOF (.vector_33) <= (_vector_spacing << 0x5))), function at exception vector 33 too large)

.vector_34      0x9fc01640        0x8
 *(.vector_34)
 .vector_34     0x9fc01640        0x8 d:/programs/xc32/bin/bin/../../lib/gcc/pic32mx/4.8.3/../../../../pic32mx/lib\libpic32.a(vector34.o)
                0x9fc01640                __vector_dispatch_34
                0x00000001                ASSERT (((_vector_spacing == 0x0) || (SIZEOF (.vector_34) <= (_vector_spacing << 0x5))), function at exception vector 34 too large)

.vector_35      0x9fc01660        0x8
 *(.vector_35)
 .vector_35     0x9fc01660        0x8 d:/programs/xc32/bin/bin/../../lib/gcc/pic32mx/4.8.3/../../../../pic32mx/lib\libpic32.a(vector35.o)
                0x9fc01660                __vector_dispatch_35
                0x00000001                ASSERT (((_vector_spacing == 0x0) || (SIZEOF (.vector_35) <= (_vector_spacing << 0x5))), function at exception vector 35 too large)

.vector_36      0x9fc01680        0x8
 *(.vector_36)
 .vector_36     0x9fc01680        0x8 d:/programs/xc32/bin/bin/../../lib/gcc/pic32mx/4.8.3/../../../../pic32mx/lib\libpic32.a(vector36.o)
                0x9fc01680                __vector_dispatch_36
                0x00000001                ASSERT (((_vector_spacing == 0x0) || (SIZEOF (.vector_36) <= (_vector_spacing << 0x5))), function at exception vector 36 too large)

.vector_37      0x9fc016a0        0x8
 *(.vector_37)
 .vector_37     0x9fc016a0        0x8 d:/programs/xc32/bin/bin/../../lib/gcc/pic32mx/4.8.3/../../../../pic32mx/lib\libpic32.a(vector37.o)
                0x9fc016a0                __vector_dispatch_37
                0x00000001                ASSERT (((_vector_spacing == 0x0) || (SIZEOF (.vector_37) <= (_vector_spacing << 0x5))), function at exception vector 37 too large)

.vector_38      0x9fc016c0        0x8
 *(.vector_38)
 .vector_38     0x9fc016c0        0x8 d:/programs/xc32/bin/bin/../../lib/gcc/pic32mx/4.8.3/../../../../pic32mx/lib\libpic32.a(vector38.o)
                0x9fc016c0                __vector_dispatch_38
                0x00000001                ASSERT (((_vector_spacing == 0x0) || (SIZEOF (.vector_38) <= (_vector_spacing << 0x5))), function at exception vector 38 too large)

.vector_39      0x9fc016e0        0x8
 *(.vector_39)
 .vector_39     0x9fc016e0        0x8 d:/programs/xc32/bin/bin/../../lib/gcc/pic32mx/4.8.3/../../../../pic32mx/lib\libpic32.a(vector39.o)
                0x9fc016e0                __vector_dispatch_39
                0x00000001                ASSERT (((_vector_spacing == 0x0) || (SIZEOF (.vector_39) <= (_vector_spacing << 0x5))), function at exception vector 39 too large)

.vector_40      0x9fc01700        0x8
 *(.vector_40)
 .vector_40     0x9fc01700        0x8 d:/programs/xc32/bin/bin/../../lib/gcc/pic32mx/4.8.3/../../../../pic32mx/lib\libpic32.a(vector40.o)
                0x9fc01700                __vector_dispatch_40
                0x00000001                ASSERT (((_vector_spacing == 0x0) || (SIZEOF (.vector_40) <= (_vector_spacing << 0x5))), function at exception vector 40 too large)

.vector_41      0x9fc01720        0x8
 *(.vector_41)
 .vector_41     0x9fc01720        0x8 d:/programs/xc32/bin/bin/../../lib/gcc/pic32mx/4.8.3/../../../../pic32mx/lib\libpic32.a(vector41.o)
                0x9fc01720                __vector_dispatch_41
                0x00000001                ASSERT (((_vector_spacing == 0x0) || (SIZEOF (.vector_41) <= (_vector_spacing << 0x5))), function at exception vector 41 too large)

.vector_42      0x9fc01740        0x8
 *(.vector_42)
 .vector_42     0x9fc01740        0x8 d:/programs/xc32/bin/bin/../../lib/gcc/pic32mx/4.8.3/../../../../pic32mx/lib\libpic32.a(vector42.o)
                0x9fc01740                __vector_dispatch_42
                0x00000001                ASSERT (((_vector_spacing == 0x0) || (SIZEOF (.vector_42) <= (_vector_spacing << 0x5))), function at exception vector 42 too large)

.vector_43      0x9fc01760        0x8
 *(.vector_43)
 .vector_43     0x9fc01760        0x8 d:/programs/xc32/bin/bin/../../lib/gcc/pic32mx/4.8.3/../../../../pic32mx/lib\libpic32.a(vector43.o)
                0x9fc01760                __vector_dispatch_43
                0x00000001                ASSERT (((_vector_spacing == 0x0) || (SIZEOF (.vector_43) <= (_vector_spacing << 0x5))), function at exception vector 43 too large)

.vector_44      0x9fc01780        0x8
 *(.vector_44)
 .vector_44     0x9fc01780        0x8 d:/programs/xc32/bin/bin/../../lib/gcc/pic32mx/4.8.3/../../../../pic32mx/lib\libpic32.a(vector44.o)
                0x9fc01780                __vector_dispatch_44
                0x00000001                ASSERT (((_vector_spacing == 0x0) || (SIZEOF (.vector_44) <= (_vector_spacing << 0x5))), function at exception vector 44 too large)

.vector_45      0x9fc017a0        0x8
 *(.vector_45)
 .vector_45     0x9fc017a0        0x8 d:/programs/xc32/bin/bin/../../lib/gcc/pic32mx/4.8.3/../../../../pic32mx/lib\libpic32.a(vector45.o)
                0x9fc017a0                __vector_dispatch_45
                0x00000001                ASSERT (((_vector_spacing == 0x0) || (SIZEOF (.vector_45) <= (_vector_spacing << 0x5))), function at exception vector 45 too large)

.vector_46      0x9fc017c0        0x8
 *(.vector_46)
 .vector_46     0x9fc017c0        0x8 d:/programs/xc32/bin/bin/../../lib/gcc/pic32mx/4.8.3/../../../../pic32mx/lib\libpic32.a(vector46.o)
                0x9fc017c0                __vector_dispatch_46
                0x00000001                ASSERT (((_vector_spacing == 0x0) || (SIZEOF (.vector_46) <= (_vector_spacing << 0x5))), function at exception vector 46 too large)

.vector_47      0x9fc017e0        0x8
 *(.vector_47)
 .vector_47     0x9fc017e0        0x8 d:/programs/xc32/bin/bin/../../lib/gcc/pic32mx/4.8.3/../../../../pic32mx/lib\libpic32.a(vector47.o)
                0x9fc017e0                __vector_dispatch_47
                0x00000001                ASSERT (((_vector_spacing == 0x0) || (SIZEOF (.vector_47) <= (_vector_spacing << 0x5))), function at exception vector 47 too large)

.vector_48      0x9fc01800        0x8
 *(.vector_48)
 .vector_48     0x9fc01800        0x8 d:/programs/xc32/bin/bin/../../lib/gcc/pic32mx/4.8.3/../../../../pic32mx/lib\libpic32.a(vector48.o)
                0x9fc01800                __vector_dispatch_48
                0x00000001                ASSERT (((_vector_spacing == 0x0) || (SIZEOF (.vector_48) <= (_vector_spacing << 0x5))), function at exception vector 48 too large)

.vector_49      0x9fc01820        0x8
 *(.vector_49)
 .vector_49     0x9fc01820        0x8 d:/programs/xc32/bin/bin/../../lib/gcc/pic32mx/4.8.3/../../../../pic32mx/lib\libpic32.a(vector49.o)
                0x9fc01820                __vector_dispatch_49
                0x00000001                ASSERT (((_vector_spacing == 0x0) || (SIZEOF (.vector_49) <= (_vector_spacing << 0x5))), function at exception vector 49 too large)

.vector_50      0x9fc01840        0x8
 *(.vector_50)
 .vector_50     0x9fc01840        0x8 build/default/debug/_ext/1171490990/interrupts.o
                0x9fc01840                __vector_dispatch_50
                0x00000001                ASSERT (((_vector_spacing == 0x0) || (SIZEOF (.vector_50) <= (_vector_spacing << 0x5))), function at exception vector 50 too large)

.vector_51      0x9fc01860        0x8
 *(.vector_51)
 .vector_51     0x9fc01860        0x8 d:/programs/xc32/bin/bin/../../lib/gcc/pic32mx/4.8.3/../../../../pic32mx/lib\libpic32.a(vector51.o)
                0x9fc01860                __vector_dispatch_51
                0x00000001                ASSERT (((_vector_spacing == 0x0) || (SIZEOF (.vector_51) <= (_vector_spacing << 0x5))), function at exception vector 51 too large)

.vector_52      0x9fc01880        0x0
 *(.vector_52)
                0x00000001                ASSERT (((_vector_spacing == 0x0) || (SIZEOF (.vector_52) <= (_vector_spacing << 0x5))), function at exception vector 52 too large)

.vector_53      0x9fc018a0        0x0
 *(.vector_53)
                0x00000001                ASSERT (((_vector_spacing == 0x0) || (SIZEOF (.vector_53) <= (_vector_spacing << 0x5))), function at exception vector 53 too large)

.vector_54      0x9fc018c0        0x0
 *(.vector_54)
                0x00000001                ASSERT (((_vector_spacing == 0x0) || (SIZEOF (.vector_54) <= (_vector_spacing << 0x5))), function at exception vector 54 too large)

.vector_55      0x9fc018e0        0x0
 *(.vector_55)
                0x00000001                ASSERT (((_vector_spacing == 0x0) || (SIZEOF (.vector_55) <= (_vector_spacing << 0x5))), function at exception vector 55 too large)

.vector_56      0x9fc01900        0x0
 *(.vector_56)
                0x00000001                ASSERT (((_vector_spacing == 0x0) || (SIZEOF (.vector_56) <= (_vector_spacing << 0x5))), function at exception vector 56 too large)

.vector_57      0x9fc01920        0x0
 *(.vector_57)
                0x00000001                ASSERT (((_vector_spacing == 0x0) || (SIZEOF (.vector_57) <= (_vector_spacing << 0x5))), function at exception vector 57 too large)

.vector_58      0x9fc01940        0x0
 *(.vector_58)
                0x00000001                ASSERT (((_vector_spacing == 0x0) || (SIZEOF (.vector_58) <= (_vector_spacing << 0x5))), function at exception vector 58 too large)

.vector_59      0x9fc01960        0x0
 *(.vector_59)
                0x00000001                ASSERT (((_vector_spacing == 0x0) || (SIZEOF (.vector_59) <= (_vector_spacing << 0x5))), function at exception vector 59 too large)

.vector_60      0x9fc01980        0x0
 *(.vector_60)
                0x00000001                ASSERT (((_vector_spacing == 0x0) || (SIZEOF (.vector_60) <= (_vector_spacing << 0x5))), function at exception vector 60 too large)

.vector_61      0x9fc019a0        0x0
 *(.vector_61)
                0x00000001                ASSERT (((_vector_spacing == 0x0) || (SIZEOF (.vector_61) <= (_vector_spacing << 0x5))), function at exception vector 61 too large)

.vector_62      0x9fc019c0        0x0
 *(.vector_62)
                0x00000001                ASSERT (((_vector_spacing == 0x0) || (SIZEOF (.vector_62) <= (_vector_spacing << 0x5))), function at exception vector 62 too large)

.vector_63      0x9fc019e0        0x0
 *(.vector_63)
                0x00000001                ASSERT (((_vector_spacing == 0x0) || (SIZEOF (.vector_63) <= (_vector_spacing << 0x5))), function at exception vector 63 too large)

.startup
 *(.startup)

.text           0x9d000000        0x0
 *(.stub .gnu.linkonce.t.*)
 *(.text.*personality*)
 *(.mips16.fn.*)
 *(.mips16.call.*)
 *(.gnu.warning)
                0x9d000000                . = ALIGN (0x4)

.init           0x9d000000        0x0
 *crti.o(.init)
 *crtbegin.o(.init)
 *(EXCLUDE_FILE(*crtn.o *crtend?.o *crtend.o) .init)
 *crtend.o(.init)
 *crtn.o(.init)
                0x9d000000                . = ALIGN (0x4)

.fini           0x9d000000        0x0
 *(.fini)
                0x9d000000                . = ALIGN (0x4)

.preinit_array  0x9d000000        0x0
                0x9d000000                PROVIDE (__preinit_array_start, .)
 *(.preinit_array)
                0x9d000000                PROVIDE (__preinit_array_end, .)
                0x9d000000                . = ALIGN (0x4)

.init_array     0x9d000000        0x0
                0x9d000000                PROVIDE (__init_array_start, .)
 *(SORT(.init_array.*))
 *(.init_array)
                0x9d000000                PROVIDE (__init_array_end, .)
                0x9d000000                . = ALIGN (0x4)

.fini_array     0x9d000000        0x0
                0x9d000000                PROVIDE (__fini_array_start, .)
 *(SORT(.fini_array.*))
 *(.fini_array)
                0x9d000000                PROVIDE (__fini_array_end, .)
                0x9d000000                . = ALIGN (0x4)

.ctors          0x9d000000        0x0
 *crtbegin.o(.ctors)
 *crtbegin?.o(.ctors)
 *(EXCLUDE_FILE(*crtend?.o *crtend.o) .ctors)
 *(SORT(.ctors.*))
 *(.ctors)
                0x9d000000                . = ALIGN (0x4)

.dtors          0x9d000000        0x0
 *crtbegin.o(.dtors)
 *crtbegin?.o(.dtors)
 *(EXCLUDE_FILE(*crtend?.o *crtend.o) .dtors)
 *(SORT(.dtors.*))
 *(.dtors)
                0x9d000000                . = ALIGN (0x4)

.rodata         0x9d000000        0x0
 *(.gnu.linkonce.r.*)
 *(.rodata1)
                0x9d000000                . = ALIGN (0x4)

.sdata2         0x9fc00490        0x0
 *(.sdata2 .sdata2.* .gnu.linkonce.s2.*)
                0x9fc00490                . = ALIGN (0x4)

.sbss2          0x9fc00490        0x0
 *(.sbss2 .sbss2.* .gnu.linkonce.sb2.*)
                0x9fc00490                . = ALIGN (0x4)

.eh_frame_hdr
 *(.eh_frame_hdr)
                0x9fc00490                . = ALIGN (0x4)

.eh_frame
 *(.eh_frame)
                0x9fc00490                . = ALIGN (0x4)

.gcc_except_table
 *(.gcc_except_table .gcc_except_table.*)
                0x9fc00490                . = ALIGN (0x4)

.dbg_data       0xa0000200        0x0
                0xa0000200                . = (. + DEFINED (_DEBUGGER)?0x200:0x0)

.jcr            0xa0000200        0x0
 *(.jcr)
                0xa0000200                . = ALIGN (0x4)

.eh_frame
 *(.eh_frame)
                0xa0000200                . = ALIGN (0x4)

.gcc_except_table
 *(.gcc_except_table .gcc_except_table.*)
                0xa0000200                . = ALIGN (0x4)

.persist        0xa0000200        0x0
                0xa0000200                _persist_begin = .
 *(.persist .persist.*)
 *(.pbss .pbss.*)
                0xa0000200                . = ALIGN (0x4)
                0xa0000200                _persist_end = .

.data           0xa0000200        0x0
 *(.gnu.linkonce.d.*)
 *(.data1)
                0xa0000200                . = ALIGN (0x4)
                0xa0000200                . = .
                0xa00081f0                _gp = (ALIGN (0x10) + 0x7ff0)

.got            0xa0000200        0x0
 *(.got.plt)
 *(.got)
                0xa0000200                . = ALIGN (0x4)

.sdata          0xa0000200       0x20
                0xa0000200                _sdata_begin = .
 *(.sdata .sdata.* .gnu.linkonce.s.*)
 .sdata         0xa0000200        0x4 build/default/debug/MPU6050.o
                0xa0000200                timer2
 .sdata         0xa0000204        0x4 build/default/debug/BNO055.o
                0xa0000204                timer
 .sdata         0xa0000208        0x2 build/default/debug/_ext/101884895/sys_time.o
 *fill*         0xa000020a        0x2 
 .sdata         0xa000020c       0x14 build/default/debug/_ext/1360937237/app.o
                0xa000020c                delay_timer
                0xa0000210                icap4
                0xa0000212                icap3
                0xa0000214                pw_receiverx
                0xa0000216                pw_receivery
                0xa0000218                msg
                0xa000021c                r
                0xa0000220                . = ALIGN (0x4)
                0xa0000220                _sdata_end = .

.lit8
 *(.lit8)

.lit4
 *(.lit4)
                0xa0000220                . = ALIGN (0x4)
                0xa0000220                _data_end = .
                0xa0000220                _bss_begin = .

.sbss           0xa0000220       0xac
                0xa0000220                _sbss_begin = .
 *(.dynsbss)
 *(.sbss .sbss.* .gnu.linkonce.sb.*)
 .sbss          0xa0000220        0xc build/default/debug/_ext/1171490990/exceptions.o
 .sbss          0xa000022c        0x8 build/default/debug/_ext/60181895/plib_tmr4.o
 .sbss          0xa0000234        0x8 build/default/debug/_ext/60181895/plib_tmr2.o
 .sbss          0xa000023c        0x8 build/default/debug/_ext/1865638794/plib_tmr1.o
 .sbss          0xa0000244       0x14 build/default/debug/_ext/1360937237/app.o
                0xa0000244                counter_outer
                0xa0000248                output_inner_x
                0xa000024c                throttle
                0xa0000250                counter1
                0xa0000254                counter
 *(.scommon)
 .scommon       0xa0000258        0x0 build/default/debug/BNO055.o
 .scommon       0xa0000258        0x4 build/default/debug/_ext/1360937237/i2c_personal.o
                0xa0000258                global_data
 .scommon       0xa000025c        0x0 build/default/debug/_ext/1360937237/interrupt_callbacks.o
 .scommon       0xa000025c        0x4 build/default/debug/_ext/1360937237/uart_bluetooth.o
                0xa000025c                uart_bluetoothData
 .scommon       0xa0000260        0x8 build/default/debug/_ext/1865301019/plib_icap4.o
                0xa0000260                icap4Obj
 .scommon       0xa0000268        0x8 build/default/debug/_ext/1865301019/plib_icap2.o
                0xa0000268                icap2Obj
 .scommon       0xa0000270        0x8 build/default/debug/_ext/1865301019/plib_icap3.o
                0xa0000270                icap3Obj
 .scommon       0xa0000278        0x8 build/default/debug/_ext/1865301019/plib_icap1.o
                0xa0000278                icap1Obj
 .scommon       0xa0000280        0x8 build/default/debug/_ext/1249264884/plib_coretimer.o
                0xa0000280                coreTmr
 .scommon       0xa0000288       0x44 build/default/debug/_ext/1360937237/app.o
                0xa0000288                output_outer_roll
                0xa000028c                uart_errors
                0xa0000290                output_inner_yaw
                0xa0000294                motor_outputs
                0xa000029c                output_inner_pitch
                0xa00002a0                i2cerror
                0xa00002a4                output_outer_pitch
                0xa00002a8                controller
                0xa00002b0                sensors
                0xa00002b8                isdataready
                0xa00002bc                output_inner_roll
                0xa00002c0                buffi2ctx
                0xa00002c4                i2cevent
                0xa00002c8                output_outer_yaw
                0xa00002cc                _sbss_end = .
                0xa00002cc                . = ALIGN (0x4)

.bss            0xa00002cc      0x4d8
 *(.dynbss)
 *(COMMON)
 COMMON         0xa00002cc        0xc build/default/debug/_ext/1171490990/initialization.o
                0xa00002cc                sysObj
 COMMON         0xa00002d8       0x30 build/default/debug/_ext/1865657120/plib_uart6.o
                0xa00002d8                uart6Obj
 COMMON         0xa0000308      0x49c build/default/debug/_ext/1360937237/app.o
                0xa0000308                attitude_sensor
                0xa0000320                bno055
                0xa0000344                mpu6050
                0xa0000368                buffi2c
                0xa0000378                appData
                0xa0000390                eulerAngles
                0xa000039c                sensor_list
                0xa0000644                uart_buffer
                0xa0000664                accelGyro
                0xa0000670                uartTxBuffer
                0xa0000690                pid_inner
                0xa00006fc                attitude_desired
                0xa0000714                pid_inner_x
                0xa0000738                pid_outer
                0xa00007a4                . = ALIGN ((. != 0x0)?0x4:0x1)
                0xa00007a4                . = ALIGN (0x4)
                0xa00007a4                _end = .
                0xa00007a4                _bss_end = .
                0x00020000                _bmxdudba_address = 0x20000
                0x00020000                _bmxdupba_address = 0x20000

/DISCARD/
 *(.pdr)
 *(.rel.dyn)
 *(.note.GNU-stack)
 *(.note.GNU-stack)
 *(.gnu_debuglink)
 *(.gnu.lto_*)
 *(.discard)

.gptab.sdata
 *(.gptab.data)
 *(.gptab.sdata)

.gptab.sbss
 *(.gptab.bss)
 *(.gptab.sbss)

.mdebug.abi32   0xa00007a4        0x0
 *(.mdebug.abi32)
 .mdebug.abi32  0xa00007a4        0x0 d:/programs/xc32/bin/bin/../../lib/gcc/pic32mx/4.8.3/../../../../pic32mx/lib\software-debug-break.o
 .mdebug.abi32  0xa00007a4        0x0 build/default/debug/MPU6050.o
 .mdebug.abi32  0xa00007a4        0x0 build/default/debug/BNO055.o
 .mdebug.abi32  0xa00007a4        0x0 build/default/debug/_ext/1360937237/i2c_personal.o
 .mdebug.abi32  0xa00007a4        0x0 build/default/debug/_ext/1360937237/interrupt_callbacks.o
 .mdebug.abi32  0xa00007a4        0x0 build/default/debug/_ext/1360937237/state_estimation.o
 .mdebug.abi32  0xa00007a4        0x0 build/default/debug/_ext/1360937237/uart_bluetooth.o
 .mdebug.abi32  0xa00007a4        0x0 build/default/debug/_ext/1865301019/plib_icap4.o
 .mdebug.abi32  0xa00007a4        0x0 build/default/debug/_ext/1865301019/plib_icap2.o
 .mdebug.abi32  0xa00007a4        0x0 build/default/debug/_ext/1865301019/plib_icap3.o
 .mdebug.abi32  0xa00007a4        0x0 build/default/debug/_ext/1360937237/main.o
 .mdebug.abi32  0xa00007a4        0x0 build/default/debug/_ext/1171490990/initialization.o
 .mdebug.abi32  0xa00007a4        0x0 build/default/debug/_ext/1171490990/interrupts.o
 .mdebug.abi32  0xa00007a4        0x0 build/default/debug/_ext/1171490990/exceptions.o
 .mdebug.abi32  0xa00007a4        0x0 build/default/debug/_ext/163028504/xc32_monitor.o
 .mdebug.abi32  0xa00007a4        0x0 build/default/debug/_ext/60165520/plib_clk.o
 .mdebug.abi32  0xa00007a4        0x0 build/default/debug/_ext/1865254177/plib_gpio.o
 .mdebug.abi32  0xa00007a4        0x0 build/default/debug/_ext/1865200349/plib_evic.o
 .mdebug.abi32  0xa00007a4        0x0 build/default/debug/_ext/1865301019/plib_icap1.o
 .mdebug.abi32  0xa00007a4        0x0 build/default/debug/_ext/1865480137/plib_ocmp1.o
 .mdebug.abi32  0xa00007a4        0x0 build/default/debug/_ext/1865480137/plib_ocmp4.o
 .mdebug.abi32  0xa00007a4        0x0 build/default/debug/_ext/1865480137/plib_ocmp2.o
 .mdebug.abi32  0xa00007a4        0x0 build/default/debug/_ext/158385033/drv_i2c.o
 .mdebug.abi32  0xa00007a4        0x0 build/default/debug/_ext/1865480137/plib_ocmp3.o
 .mdebug.abi32  0xa00007a4        0x0 build/default/debug/_ext/101884895/sys_time.o
 .mdebug.abi32  0xa00007a4        0x0 build/default/debug/_ext/1865657120/plib_uart6.o
 .mdebug.abi32  0xa00007a4        0x0 build/default/debug/_ext/1249264884/plib_coretimer.o
 .mdebug.abi32  0xa00007a4        0x0 build/default/debug/_ext/60181895/plib_tmr4.o
 .mdebug.abi32  0xa00007a4        0x0 build/default/debug/_ext/869808652/drv_usart.o
 .mdebug.abi32  0xa00007a4        0x0 build/default/debug/_ext/60169480/plib_i2c5.o
 .mdebug.abi32  0xa00007a4        0x0 build/default/debug/_ext/60181895/plib_tmr2.o
 .mdebug.abi32  0xa00007a4        0x0 build/default/debug/_ext/60181895/plib_tmr3.o
 .mdebug.abi32  0xa00007a4        0x0 build/default/debug/_ext/1865638794/plib_tmr1.o
 .mdebug.abi32  0xa00007a4        0x0 build/default/debug/_ext/1881668453/sys_int.o
 .mdebug.abi32  0xa00007a4        0x0 build/default/debug/_ext/14461671/sys_dma.o
 .mdebug.abi32  0xa00007a4        0x0 build/default/debug/_ext/1360937237/app.o
 .mdebug.abi32  0xa00007a4        0x0 build/default/debug/_ext/1171490990/tasks.o
 .mdebug.abi32  0xa00007a4        0x0 d:/programs/xc32/bin/bin/../../lib/gcc/pic32mx/4.8.3\libgcc.a(_udivdi3.o)
 .mdebug.abi32  0xa00007a4        0x0 d:/programs/xc32/bin/bin/../../lib/gcc/pic32mx/4.8.3\libgcc.a(floatunsisf.o)
 .mdebug.abi32  0xa00007a4        0x0 d:/programs/xc32/bin/bin/../../lib/gcc/pic32mx/4.8.3/../../../../pic32mx/lib\libpic32.a(default-bootstrap-exception-handler.o)
 .mdebug.abi32  0xa00007a4        0x0 d:/programs/xc32/bin/bin/../../lib/gcc/pic32mx/4.8.3/../../../../pic32mx/lib\libpic32.a(default-on-reset.o)
 .mdebug.abi32  0xa00007a4        0x0 d:/programs/xc32/bin/bin/../../lib/gcc/pic32mx/4.8.3/../../../../pic32mx/lib\libpic32.a(default-on-bootstrap.o)
 .mdebug.abi32  0xa00007a4        0x0 d:/programs/xc32/bin/bin/../../lib/gcc/pic32mx/4.8.3/../../../../pic32mx/lib\libpic32.a(defaultinterrupt.o)
 .mdebug.abi32  0xa00007a4        0x0 d:/programs/xc32/bin/bin/../../lib/gcc/pic32mx/4.8.3/../../../../pic32mx/lib\libc.a(printf_cdnopsuxX.eo)
 .mdebug.abi32  0xa00007a4        0x0 d:/programs/xc32/bin/bin/../../lib/gcc/pic32mx/4.8.3/../../../../pic32mx/lib\libc.a(sprintf_fF.eo)
 .mdebug.abi32  0xa00007a4        0x0 d:/programs/xc32/bin/bin/../../lib/gcc/pic32mx/4.8.3/../../../../pic32mx/lib\libc.a(_iob.o)
 .mdebug.abi32  0xa00007a4        0x0 d:/programs/xc32/bin/bin/../../lib/gcc/pic32mx/4.8.3/../../../../pic32mx/lib\libc.a(_fputc_simple.o)
 .mdebug.abi32  0xa00007a4        0x0 d:/programs/xc32/bin/bin/../../lib/gcc/pic32mx/4.8.3/../../../../pic32mx/lib\libc.a(ctype.o)
 .mdebug.abi32  0xa00007a4        0x0 d:/programs/xc32/bin/bin/../../lib/gcc/pic32mx/4.8.3/../../../../pic32mx/lib\libc.a(ldpowers.o)
 .mdebug.abi32  0xa00007a4        0x0 d:/programs/xc32/bin/bin/../../lib/gcc/pic32mx/4.8.3/../../../../pic32mx/lib\libc.a(_flsbuf_simple.o)
 .mdebug.abi32  0xa00007a4        0x0 d:/programs/xc32/bin/bin/../../lib/gcc/pic32mx/4.8.3/../../../../pic32mx/lib\libc.a(doprnt_cdfFnopsuxX.eo)
 .mdebug.abi32  0xa00007a4        0x0 d:/programs/xc32/bin/bin/../../lib/gcc/pic32mx/4.8.3/../../../../pic32mx/lib\libe.a(_fixunsdfdi.o)
 .mdebug.abi32  0xa00007a4        0x0 d:/programs/xc32/bin/bin/../../lib/gcc/pic32mx/4.8.3/../../../../pic32mx/lib\libe.a(_orderdf2.o)
 .mdebug.abi32  0xa00007a4        0x0 d:/programs/xc32/bin/bin/../../lib/gcc/pic32mx/4.8.3/../../../../pic32mx/lib\libe.a(_fixdfdi.o)
 .mdebug.abi32  0xa00007a4        0x0 d:/programs/xc32/bin/bin/../../lib/gcc/pic32mx/4.8.3\libgcc.a(_floatundidf.o)
 .mdebug.abi32  0xa00007a4        0x0 d:/programs/xc32/bin/bin/../../lib/gcc/pic32mx/4.8.3\libgcc.a(_umoddi3.o)
 .mdebug.abi32  0xa00007a4        0x0 d:/programs/xc32/bin/bin/../../lib/gcc/pic32mx/4.8.3\libgcc.a(floatunsidf.o)
 .mdebug.abi32  0xa00007a4        0x0 d:/programs/xc32/bin/bin/../../lib/gcc/pic32mx/4.8.3/../../../../pic32mx/lib\libpic32.a(write.o)

.mdebug.abiN32
 *(.mdebug.abiN32)

.mdebug.abi64
 *(.mdebug.abi64)

.mdebug.abiO64
 *(.mdebug.abiO64)

.mdebug.eabi32
 *(.mdebug.eabi32)

.mdebug.eabi64
 *(.mdebug.eabi64)

.gcc_compiled_long32
 *(.gcc_compiled_long32)

.gcc_compiled_long64
 *(.gcc_compiled_long64)

.stab
 *(.stab)

.stabstr
 *(.stabstr)

.stab.excl
 *(.stab.excl)

.stab.exclstr
 *(.stab.exclstr)

.stab.index
 *(.stab.index)

.stab.indexstr
 *(.stab.indexstr)

.comment        0x00000000      0x1e1
 *(.comment)
 .comment       0x00000000       0x3c d:/programs/xc32/bin/bin/../../lib/gcc/pic32mx/4.8.3/../../../../pic32mx/lib\software-debug-break.o
                                 0x3d (size before relaxing)
 .comment       0x00000000       0x3d build/default/debug/MPU6050.o
 .comment       0x00000000       0x3d build/default/debug/BNO055.o
 .comment       0x00000000       0x3d build/default/debug/_ext/1360937237/i2c_personal.o
 .comment       0x00000000       0x3d build/default/debug/_ext/1360937237/interrupt_callbacks.o
 .comment       0x00000000       0x3d build/default/debug/_ext/1360937237/state_estimation.o
 .comment       0x00000000       0x3d build/default/debug/_ext/1360937237/uart_bluetooth.o
 .comment       0x00000000       0x3d build/default/debug/_ext/1865301019/plib_icap4.o
 .comment       0x00000000       0x3d build/default/debug/_ext/1865301019/plib_icap2.o
 .comment       0x00000000       0x3d build/default/debug/_ext/1865301019/plib_icap3.o
 .comment       0x00000000       0x3d build/default/debug/_ext/1360937237/main.o
 .comment       0x00000000       0x3d build/default/debug/_ext/1171490990/initialization.o
 .comment       0x00000000       0x3d build/default/debug/_ext/1171490990/interrupts.o
 .comment       0x00000000       0x3d build/default/debug/_ext/1171490990/exceptions.o
 .comment       0x00000000       0x3d build/default/debug/_ext/163028504/xc32_monitor.o
 .comment       0x00000000       0x3d build/default/debug/_ext/60165520/plib_clk.o
 .comment       0x00000000       0x3d build/default/debug/_ext/1865254177/plib_gpio.o
 .comment       0x00000000       0x3d build/default/debug/_ext/1865200349/plib_evic.o
 .comment       0x00000000       0x3d build/default/debug/_ext/1865301019/plib_icap1.o
 .comment       0x00000000       0x3d build/default/debug/_ext/1865480137/plib_ocmp1.o
 .comment       0x00000000       0x3d build/default/debug/_ext/1865480137/plib_ocmp4.o
 .comment       0x00000000       0x3d build/default/debug/_ext/1865480137/plib_ocmp2.o
 .comment       0x00000000       0x3d build/default/debug/_ext/158385033/drv_i2c.o
 .comment       0x00000000       0x3d build/default/debug/_ext/1865480137/plib_ocmp3.o
 .comment       0x00000000       0x3d build/default/debug/_ext/101884895/sys_time.o
 .comment       0x00000000       0x3d build/default/debug/_ext/1865657120/plib_uart6.o
 .comment       0x00000000       0x3d build/default/debug/_ext/1249264884/plib_coretimer.o
 .comment       0x00000000       0x3d build/default/debug/_ext/60181895/plib_tmr4.o
 .comment       0x00000000       0x3d build/default/debug/_ext/869808652/drv_usart.o
 .comment       0x00000000       0x3d build/default/debug/_ext/60169480/plib_i2c5.o
 .comment       0x00000000       0x3d build/default/debug/_ext/60181895/plib_tmr2.o
 .comment       0x00000000       0x3d build/default/debug/_ext/60181895/plib_tmr3.o
 .comment       0x00000000       0x3d build/default/debug/_ext/1865638794/plib_tmr1.o
 .comment       0x00000000       0x3d build/default/debug/_ext/1881668453/sys_int.o
 .comment       0x00000000       0x3d build/default/debug/_ext/14461671/sys_dma.o
 .comment       0x00000000       0x3d build/default/debug/_ext/1360937237/app.o
 .comment       0x00000000       0x3d build/default/debug/_ext/1171490990/tasks.o
 .comment       0x00000000       0x3d d:/programs/xc32/bin/bin/../../lib/gcc/pic32mx/4.8.3\libgcc.a(_udivdi3.o)
 .comment       0x00000000       0x3d d:/programs/xc32/bin/bin/../../lib/gcc/pic32mx/4.8.3\libgcc.a(floatunsisf.o)
 .comment       0x0000003c       0x18 d:/programs/xc32/bin/bin/../../lib/gcc/pic32mx/4.8.3/../../../../pic32mx/lib\libpic32.a(memset.o)
                                 0x19 (size before relaxing)
 .comment       0x00000000       0x3d d:/programs/xc32/bin/bin/../../lib/gcc/pic32mx/4.8.3/../../../../pic32mx/lib\libpic32.a(default-bootstrap-exception-handler.o)
 .comment       0x00000000       0x3d d:/programs/xc32/bin/bin/../../lib/gcc/pic32mx/4.8.3/../../../../pic32mx/lib\libpic32.a(default-on-reset.o)
 .comment       0x00000000       0x3d d:/programs/xc32/bin/bin/../../lib/gcc/pic32mx/4.8.3/../../../../pic32mx/lib\libpic32.a(default-on-bootstrap.o)
 .comment       0x00000000       0x3d d:/programs/xc32/bin/bin/../../lib/gcc/pic32mx/4.8.3/../../../../pic32mx/lib\libpic32.a(defaultinterrupt.o)
 .comment       0x00000000       0x3d d:/programs/xc32/bin/bin/../../lib/gcc/pic32mx/4.8.3/../../../../pic32mx/lib\libc.a(printf_cdnopsuxX.eo)
 .comment       0x00000000       0x3d d:/programs/xc32/bin/bin/../../lib/gcc/pic32mx/4.8.3/../../../../pic32mx/lib\libc.a(sprintf_fF.eo)
 .comment       0x00000000       0x3d d:/programs/xc32/bin/bin/../../lib/gcc/pic32mx/4.8.3/../../../../pic32mx/lib\libc.a(_iob.o)
 .comment       0x00000000       0x3d d:/programs/xc32/bin/bin/../../lib/gcc/pic32mx/4.8.3/../../../../pic32mx/lib\libc.a(_fputc_simple.o)
 .comment       0x00000054       0x4e d:/programs/xc32/bin/bin/../../lib/gcc/pic32mx/4.8.3/../../../../pic32mx/lib\libc.a(ctype.o)
                                 0x8b (size before relaxing)
 .comment       0x00000000       0x3d d:/programs/xc32/bin/bin/../../lib/gcc/pic32mx/4.8.3/../../../../pic32mx/lib\libc.a(ldpowers.o)
 .comment       0x00000000       0x3d d:/programs/xc32/bin/bin/../../lib/gcc/pic32mx/4.8.3/../../../../pic32mx/lib\libc.a(_flsbuf_simple.o)
 .comment       0x00000000       0x3d d:/programs/xc32/bin/bin/../../lib/gcc/pic32mx/4.8.3/../../../../pic32mx/lib\libc.a(doprnt_cdfFnopsuxX.eo)
 .comment       0x000000a2       0x9f d:/programs/xc32/bin/bin/../../lib/gcc/pic32mx/4.8.3/../../../../pic32mx/lib\libe.a(_fixunsdfdi.o)
                                 0xdc (size before relaxing)
 .comment       0x00000141       0x50 d:/programs/xc32/bin/bin/../../lib/gcc/pic32mx/4.8.3/../../../../pic32mx/lib\libe.a(_orderdf2.o)
                                 0xdb (size before relaxing)
 .comment       0x00000191       0x50 d:/programs/xc32/bin/bin/../../lib/gcc/pic32mx/4.8.3/../../../../pic32mx/lib\libe.a(_fixdfdi.o)
                                 0xdb (size before relaxing)
 .comment       0x00000000       0x3d d:/programs/xc32/bin/bin/../../lib/gcc/pic32mx/4.8.3\libgcc.a(_floatundidf.o)
 .comment       0x00000000       0x3d d:/programs/xc32/bin/bin/../../lib/gcc/pic32mx/4.8.3\libgcc.a(_umoddi3.o)
 .comment       0x00000000       0x3d d:/programs/xc32/bin/bin/../../lib/gcc/pic32mx/4.8.3\libgcc.a(floatunsidf.o)
 .comment       0x00000000       0x3d d:/programs/xc32/bin/bin/../../lib/gcc/pic32mx/4.8.3/../../../../pic32mx/lib\libpic32.a(write.o)

.debug
 *(.debug)

.line
 *(.line)

.debug_srcinfo
 *(.debug_srcinfo)

.debug_sfnames
 *(.debug_sfnames)

.debug_aranges  0x00000000      0xe78
 *(.debug_aranges)
 .debug_aranges
                0x00000000       0x20 d:/programs/xc32/bin/bin/../../lib/gcc/pic32mx/4.8.3/../../../../pic32mx/lib\software-debug-break.o
 .debug_aranges
                0x00000020       0x28 build/default/debug/MPU6050.o
 .debug_aranges
                0x00000048       0x30 build/default/debug/BNO055.o
 .debug_aranges
                0x00000078       0x38 build/default/debug/_ext/1360937237/i2c_personal.o
 .debug_aranges
                0x000000b0       0x50 build/default/debug/_ext/1360937237/interrupt_callbacks.o
 .debug_aranges
                0x00000100       0x28 build/default/debug/_ext/1360937237/state_estimation.o
 .debug_aranges
                0x00000128       0x28 build/default/debug/_ext/1360937237/uart_bluetooth.o
 .debug_aranges
                0x00000150       0x50 build/default/debug/_ext/1865301019/plib_icap4.o
 .debug_aranges
                0x000001a0       0x50 build/default/debug/_ext/1865301019/plib_icap2.o
 .debug_aranges
                0x000001f0       0x50 build/default/debug/_ext/1865301019/plib_icap3.o
 .debug_aranges
                0x00000240       0x20 build/default/debug/_ext/1360937237/main.o
 .debug_aranges
                0x00000260       0x20 build/default/debug/_ext/1171490990/initialization.o
 .debug_aranges
                0x00000280       0x68 build/default/debug/_ext/1171490990/interrupts.o
 .debug_aranges
                0x000002e8       0x20 build/default/debug/_ext/1171490990/exceptions.o
 .debug_aranges
                0x00000308       0x28 build/default/debug/_ext/163028504/xc32_monitor.o
 .debug_aranges
                0x00000330       0x20 build/default/debug/_ext/60165520/plib_clk.o
 .debug_aranges
                0x00000350       0x60 build/default/debug/_ext/1865254177/plib_gpio.o
 .debug_aranges
                0x000003b0       0x50 build/default/debug/_ext/1865200349/plib_evic.o
 .debug_aranges
                0x00000400       0x50 build/default/debug/_ext/1865301019/plib_icap1.o
 .debug_aranges
                0x00000450       0x48 build/default/debug/_ext/1865480137/plib_ocmp1.o
 .debug_aranges
                0x00000498       0x48 build/default/debug/_ext/1865480137/plib_ocmp4.o
 .debug_aranges
                0x000004e0       0x48 build/default/debug/_ext/1865480137/plib_ocmp2.o
 .debug_aranges
                0x00000528       0xa0 build/default/debug/_ext/158385033/drv_i2c.o
 .debug_aranges
                0x000005c8       0x48 build/default/debug/_ext/1865480137/plib_ocmp3.o
 .debug_aranges
                0x00000610      0x130 build/default/debug/_ext/101884895/sys_time.o
 .debug_aranges
                0x00000740       0x78 build/default/debug/_ext/1865657120/plib_uart6.o
 .debug_aranges
                0x000007b8       0x68 build/default/debug/_ext/1249264884/plib_coretimer.o
 .debug_aranges
                0x00000820       0x70 build/default/debug/_ext/60181895/plib_tmr4.o
 .debug_aranges
                0x00000890       0xf0 build/default/debug/_ext/869808652/drv_usart.o
 .debug_aranges
                0x00000980       0x68 build/default/debug/_ext/60169480/plib_i2c5.o
 .debug_aranges
                0x000009e8       0x70 build/default/debug/_ext/60181895/plib_tmr2.o
 .debug_aranges
                0x00000a58       0x50 build/default/debug/_ext/60181895/plib_tmr3.o
 .debug_aranges
                0x00000aa8       0x70 build/default/debug/_ext/1865638794/plib_tmr1.o
 .debug_aranges
                0x00000b18       0x40 build/default/debug/_ext/1881668453/sys_int.o
 .debug_aranges
                0x00000b58       0x30 build/default/debug/_ext/14461671/sys_dma.o
 .debug_aranges
                0x00000b88       0x48 build/default/debug/_ext/1360937237/app.o
 .debug_aranges
                0x00000bd0       0x20 build/default/debug/_ext/1171490990/tasks.o
 .debug_aranges
                0x00000bf0       0x40 C:\Users\samfi\AppData\Local\Temp\ccuXFrqE.o
 .debug_aranges
                0x00000c30       0x20 d:/programs/xc32/bin/bin/../../lib/gcc/pic32mx/4.8.3\libgcc.a(_udivdi3.o)
 .debug_aranges
                0x00000c50       0x20 d:/programs/xc32/bin/bin/../../lib/gcc/pic32mx/4.8.3\libgcc.a(floatunsisf.o)
 .debug_aranges
                0x00000c70       0x20 d:/programs/xc32/bin/bin/../../lib/gcc/pic32mx/4.8.3/../../../../pic32mx/lib\libpic32.a(default-bootstrap-exception-handler.o)
 .debug_aranges
                0x00000c90       0x20 d:/programs/xc32/bin/bin/../../lib/gcc/pic32mx/4.8.3/../../../../pic32mx/lib\libpic32.a(default-on-reset.o)
 .debug_aranges
                0x00000cb0       0x20 d:/programs/xc32/bin/bin/../../lib/gcc/pic32mx/4.8.3/../../../../pic32mx/lib\libpic32.a(default-on-bootstrap.o)
 .debug_aranges
                0x00000cd0       0x20 d:/programs/xc32/bin/bin/../../lib/gcc/pic32mx/4.8.3/../../../../pic32mx/lib\libpic32.a(defaultinterrupt.o)
 .debug_aranges
                0x00000cf0       0x20 d:/programs/xc32/bin/bin/../../lib/gcc/pic32mx/4.8.3/../../../../pic32mx/lib\libc.a(printf_cdnopsuxX.eo)
 .debug_aranges
                0x00000d10       0x20 d:/programs/xc32/bin/bin/../../lib/gcc/pic32mx/4.8.3/../../../../pic32mx/lib\libc.a(sprintf_fF.eo)
 .debug_aranges
                0x00000d30       0x20 d:/programs/xc32/bin/bin/../../lib/gcc/pic32mx/4.8.3/../../../../pic32mx/lib\libc.a(_fputc_simple.o)
 .debug_aranges
                0x00000d50       0x20 d:/programs/xc32/bin/bin/../../lib/gcc/pic32mx/4.8.3/../../../../pic32mx/lib\libc.a(_flsbuf_simple.o)
 .debug_aranges
                0x00000d70       0x28 d:/programs/xc32/bin/bin/../../lib/gcc/pic32mx/4.8.3/../../../../pic32mx/lib\libc.a(doprnt_cdfFnopsuxX.eo)
 .debug_aranges
                0x00000d98       0x20 d:/programs/xc32/bin/bin/../../lib/gcc/pic32mx/4.8.3/../../../../pic32mx/lib\libe.a(_fixunsdfdi.o)
 .debug_aranges
                0x00000db8       0x20 d:/programs/xc32/bin/bin/../../lib/gcc/pic32mx/4.8.3/../../../../pic32mx/lib\libe.a(_orderdf2.o)
 .debug_aranges
                0x00000dd8       0x20 d:/programs/xc32/bin/bin/../../lib/gcc/pic32mx/4.8.3/../../../../pic32mx/lib\libe.a(_fixdfdi.o)
 .debug_aranges
                0x00000df8       0x20 d:/programs/xc32/bin/bin/../../lib/gcc/pic32mx/4.8.3\libgcc.a(_floatundidf.o)
 .debug_aranges
                0x00000e18       0x20 d:/programs/xc32/bin/bin/../../lib/gcc/pic32mx/4.8.3\libgcc.a(_umoddi3.o)
 .debug_aranges
                0x00000e38       0x20 d:/programs/xc32/bin/bin/../../lib/gcc/pic32mx/4.8.3\libgcc.a(floatunsidf.o)
 .debug_aranges
                0x00000e58       0x20 d:/programs/xc32/bin/bin/../../lib/gcc/pic32mx/4.8.3/../../../../pic32mx/lib\libpic32.a(write.o)

.debug_pubnames
 *(.debug_pubnames)

.debug_info     0x00000000    0x1a8e4
 *(.debug_info .gnu.linkonce.wi.*)
 .debug_info    0x00000000       0xe3 d:/programs/xc32/bin/bin/../../lib/gcc/pic32mx/4.8.3/../../../../pic32mx/lib\software-debug-break.o
 .debug_info    0x000000e3      0x64c build/default/debug/MPU6050.o
 .debug_info    0x0000072f      0x6a3 build/default/debug/BNO055.o
 .debug_info    0x00000dd2      0x5fa build/default/debug/_ext/1360937237/i2c_personal.o
 .debug_info    0x000013cc      0xd3a build/default/debug/_ext/1360937237/interrupt_callbacks.o
 .debug_info    0x00002106      0x2dc build/default/debug/_ext/1360937237/state_estimation.o
 .debug_info    0x000023e2      0x297 build/default/debug/_ext/1360937237/uart_bluetooth.o
 .debug_info    0x00002679      0x443 build/default/debug/_ext/1865301019/plib_icap4.o
 .debug_info    0x00002abc      0x443 build/default/debug/_ext/1865301019/plib_icap2.o
 .debug_info    0x00002eff      0x443 build/default/debug/_ext/1865301019/plib_icap3.o
 .debug_info    0x00003342      0x1cd build/default/debug/_ext/1360937237/main.o
 .debug_info    0x0000350f     0x2d04 build/default/debug/_ext/1171490990/initialization.o
 .debug_info    0x00006213      0x4cb build/default/debug/_ext/1171490990/interrupts.o
 .debug_info    0x000066de      0x25a build/default/debug/_ext/1171490990/exceptions.o
 .debug_info    0x00006938      0x121 build/default/debug/_ext/163028504/xc32_monitor.o
 .debug_info    0x00006a59      0x190 build/default/debug/_ext/60165520/plib_clk.o
 .debug_info    0x00006be9      0x4e0 build/default/debug/_ext/1865254177/plib_gpio.o
 .debug_info    0x000070c9      0xcb8 build/default/debug/_ext/1865200349/plib_evic.o
 .debug_info    0x00007d81      0x443 build/default/debug/_ext/1865301019/plib_icap1.o
 .debug_info    0x000081c4      0x2f6 build/default/debug/_ext/1865480137/plib_ocmp1.o
 .debug_info    0x000084ba      0x2f6 build/default/debug/_ext/1865480137/plib_ocmp4.o
 .debug_info    0x000087b0      0x2f6 build/default/debug/_ext/1865480137/plib_ocmp2.o
 .debug_info    0x00008aa6     0x2a67 build/default/debug/_ext/158385033/drv_i2c.o
 .debug_info    0x0000b50d      0x2f6 build/default/debug/_ext/1865480137/plib_ocmp3.o
 .debug_info    0x0000b803     0x2ac7 build/default/debug/_ext/101884895/sys_time.o
 .debug_info    0x0000e2ca      0xc35 build/default/debug/_ext/1865657120/plib_uart6.o
 .debug_info    0x0000eeff      0x904 build/default/debug/_ext/1249264884/plib_coretimer.o
 .debug_info    0x0000f803      0x8d0 build/default/debug/_ext/60181895/plib_tmr4.o
 .debug_info    0x000100d3     0x3907 build/default/debug/_ext/869808652/drv_usart.o
 .debug_info    0x000139da      0x9c4 build/default/debug/_ext/60169480/plib_i2c5.o
 .debug_info    0x0001439e      0x8d0 build/default/debug/_ext/60181895/plib_tmr2.o
 .debug_info    0x00014c6e      0x2da build/default/debug/_ext/60181895/plib_tmr3.o
 .debug_info    0x00014f48      0x8e9 build/default/debug/_ext/1865638794/plib_tmr1.o
 .debug_info    0x00015831      0xbf3 build/default/debug/_ext/1881668453/sys_int.o
 .debug_info    0x00016424      0x558 build/default/debug/_ext/14461671/sys_dma.o
 .debug_info    0x0001697c     0x1ef2 build/default/debug/_ext/1360937237/app.o
 .debug_info    0x0001886e      0x1aa build/default/debug/_ext/1171490990/tasks.o
 .debug_info    0x00018a18       0xbc C:\Users\samfi\AppData\Local\Temp\ccuXFrqE.o
 .debug_info    0x00018ad4      0x74b d:/programs/xc32/bin/bin/../../lib/gcc/pic32mx/4.8.3\libgcc.a(_udivdi3.o)
 .debug_info    0x0001921f      0x129 d:/programs/xc32/bin/bin/../../lib/gcc/pic32mx/4.8.3\libgcc.a(floatunsisf.o)
 .debug_info    0x00019348       0xf4 d:/programs/xc32/bin/bin/../../lib/gcc/pic32mx/4.8.3/../../../../pic32mx/lib\libpic32.a(default-bootstrap-exception-handler.o)
 .debug_info    0x0001943c       0xcd d:/programs/xc32/bin/bin/../../lib/gcc/pic32mx/4.8.3/../../../../pic32mx/lib\libpic32.a(default-on-reset.o)
 .debug_info    0x00019509       0xd5 d:/programs/xc32/bin/bin/../../lib/gcc/pic32mx/4.8.3/../../../../pic32mx/lib\libpic32.a(default-on-bootstrap.o)
 .debug_info    0x000195de       0xe7 d:/programs/xc32/bin/bin/../../lib/gcc/pic32mx/4.8.3/../../../../pic32mx/lib\libpic32.a(defaultinterrupt.o)
 .debug_info    0x000196c5       0xcf d:/programs/xc32/bin/bin/../../lib/gcc/pic32mx/4.8.3/../../../../pic32mx/lib\libc.a(printf_cdnopsuxX.eo)
 .debug_info    0x00019794       0xca d:/programs/xc32/bin/bin/../../lib/gcc/pic32mx/4.8.3/../../../../pic32mx/lib\libc.a(sprintf_fF.eo)
 .debug_info    0x0001985e       0xc2 d:/programs/xc32/bin/bin/../../lib/gcc/pic32mx/4.8.3/../../../../pic32mx/lib\libc.a(_fputc_simple.o)
 .debug_info    0x00019920       0xc5 d:/programs/xc32/bin/bin/../../lib/gcc/pic32mx/4.8.3/../../../../pic32mx/lib\libc.a(_flsbuf_simple.o)
 .debug_info    0x000199e5       0xfb d:/programs/xc32/bin/bin/../../lib/gcc/pic32mx/4.8.3/../../../../pic32mx/lib\libc.a(doprnt_cdfFnopsuxX.eo)
 .debug_info    0x00019ae0       0xce d:/programs/xc32/bin/bin/../../lib/gcc/pic32mx/4.8.3/../../../../pic32mx/lib\libe.a(_fixunsdfdi.o)
 .debug_info    0x00019bae       0xba d:/programs/xc32/bin/bin/../../lib/gcc/pic32mx/4.8.3/../../../../pic32mx/lib\libe.a(_orderdf2.o)
 .debug_info    0x00019c68       0xb9 d:/programs/xc32/bin/bin/../../lib/gcc/pic32mx/4.8.3/../../../../pic32mx/lib\libe.a(_fixdfdi.o)
 .debug_info    0x00019d21      0x245 d:/programs/xc32/bin/bin/../../lib/gcc/pic32mx/4.8.3\libgcc.a(_floatundidf.o)
 .debug_info    0x00019f66      0x788 d:/programs/xc32/bin/bin/../../lib/gcc/pic32mx/4.8.3\libgcc.a(_umoddi3.o)
 .debug_info    0x0001a6ee      0x137 d:/programs/xc32/bin/bin/../../lib/gcc/pic32mx/4.8.3\libgcc.a(floatunsidf.o)
 .debug_info    0x0001a825       0xbf d:/programs/xc32/bin/bin/../../lib/gcc/pic32mx/4.8.3/../../../../pic32mx/lib\libpic32.a(write.o)

.debug_abbrev   0x00000000     0x3aef
 *(.debug_abbrev)
 .debug_abbrev  0x00000000       0x28 d:/programs/xc32/bin/bin/../../lib/gcc/pic32mx/4.8.3/../../../../pic32mx/lib\software-debug-break.o
 .debug_abbrev  0x00000028      0x12f build/default/debug/MPU6050.o
 .debug_abbrev  0x00000157      0x13a build/default/debug/BNO055.o
 .debug_abbrev  0x00000291      0x143 build/default/debug/_ext/1360937237/i2c_personal.o
 .debug_abbrev  0x000003d4      0x20c build/default/debug/_ext/1360937237/interrupt_callbacks.o
 .debug_abbrev  0x000005e0       0xd0 build/default/debug/_ext/1360937237/state_estimation.o
 .debug_abbrev  0x000006b0       0xbb build/default/debug/_ext/1360937237/uart_bluetooth.o
 .debug_abbrev  0x0000076b      0x15e build/default/debug/_ext/1865301019/plib_icap4.o
 .debug_abbrev  0x000008c9      0x15e build/default/debug/_ext/1865301019/plib_icap2.o
 .debug_abbrev  0x00000a27      0x15e build/default/debug/_ext/1865301019/plib_icap3.o
 .debug_abbrev  0x00000b85       0x93 build/default/debug/_ext/1360937237/main.o
 .debug_abbrev  0x00000c18      0x26c build/default/debug/_ext/1171490990/initialization.o
 .debug_abbrev  0x00000e84       0x57 build/default/debug/_ext/1171490990/interrupts.o
 .debug_abbrev  0x00000edb       0xa4 build/default/debug/_ext/1171490990/exceptions.o
 .debug_abbrev  0x00000f7f       0x66 build/default/debug/_ext/163028504/xc32_monitor.o
 .debug_abbrev  0x00000fe5       0x39 build/default/debug/_ext/60165520/plib_clk.o
 .debug_abbrev  0x0000101e       0xd7 build/default/debug/_ext/1865254177/plib_gpio.o
 .debug_abbrev  0x000010f5       0xef build/default/debug/_ext/1865200349/plib_evic.o
 .debug_abbrev  0x000011e4      0x15e build/default/debug/_ext/1865301019/plib_icap1.o
 .debug_abbrev  0x00001342       0xa1 build/default/debug/_ext/1865480137/plib_ocmp1.o
 .debug_abbrev  0x000013e3       0xa1 build/default/debug/_ext/1865480137/plib_ocmp4.o
 .debug_abbrev  0x00001484       0xa1 build/default/debug/_ext/1865480137/plib_ocmp2.o
 .debug_abbrev  0x00001525      0x447 build/default/debug/_ext/158385033/drv_i2c.o
 .debug_abbrev  0x0000196c       0xa1 build/default/debug/_ext/1865480137/plib_ocmp3.o
 .debug_abbrev  0x00001a0d      0x562 build/default/debug/_ext/101884895/sys_time.o
 .debug_abbrev  0x00001f6f      0x2bd build/default/debug/_ext/1865657120/plib_uart6.o
 .debug_abbrev  0x0000222c      0x1fe build/default/debug/_ext/1249264884/plib_coretimer.o
 .debug_abbrev  0x0000242a      0x183 build/default/debug/_ext/60181895/plib_tmr4.o
 .debug_abbrev  0x000025ad      0x537 build/default/debug/_ext/869808652/drv_usart.o
 .debug_abbrev  0x00002ae4      0x1e3 build/default/debug/_ext/60169480/plib_i2c5.o
 .debug_abbrev  0x00002cc7      0x183 build/default/debug/_ext/60181895/plib_tmr2.o
 .debug_abbrev  0x00002e4a       0xa1 build/default/debug/_ext/60181895/plib_tmr3.o
 .debug_abbrev  0x00002eeb      0x1c4 build/default/debug/_ext/1865638794/plib_tmr1.o
 .debug_abbrev  0x000030af      0x123 build/default/debug/_ext/1881668453/sys_int.o
 .debug_abbrev  0x000031d2       0xa6 build/default/debug/_ext/14461671/sys_dma.o
 .debug_abbrev  0x00003278      0x233 build/default/debug/_ext/1360937237/app.o
 .debug_abbrev  0x000034ab       0x57 build/default/debug/_ext/1171490990/tasks.o
 .debug_abbrev  0x00003502       0x12 C:\Users\samfi\AppData\Local\Temp\ccuXFrqE.o
 .debug_abbrev  0x00003514      0x138 d:/programs/xc32/bin/bin/../../lib/gcc/pic32mx/4.8.3\libgcc.a(_udivdi3.o)
 .debug_abbrev  0x0000364c       0x62 d:/programs/xc32/bin/bin/../../lib/gcc/pic32mx/4.8.3\libgcc.a(floatunsisf.o)
 .debug_abbrev  0x000036ae       0x28 d:/programs/xc32/bin/bin/../../lib/gcc/pic32mx/4.8.3/../../../../pic32mx/lib\libpic32.a(default-bootstrap-exception-handler.o)
 .debug_abbrev  0x000036d6       0x28 d:/programs/xc32/bin/bin/../../lib/gcc/pic32mx/4.8.3/../../../../pic32mx/lib\libpic32.a(default-on-reset.o)
 .debug_abbrev  0x000036fe       0x28 d:/programs/xc32/bin/bin/../../lib/gcc/pic32mx/4.8.3/../../../../pic32mx/lib\libpic32.a(default-on-bootstrap.o)
 .debug_abbrev  0x00003726       0x28 d:/programs/xc32/bin/bin/../../lib/gcc/pic32mx/4.8.3/../../../../pic32mx/lib\libpic32.a(defaultinterrupt.o)
 .debug_abbrev  0x0000374e       0x28 d:/programs/xc32/bin/bin/../../lib/gcc/pic32mx/4.8.3/../../../../pic32mx/lib\libc.a(printf_cdnopsuxX.eo)
 .debug_abbrev  0x00003776       0x28 d:/programs/xc32/bin/bin/../../lib/gcc/pic32mx/4.8.3/../../../../pic32mx/lib\libc.a(sprintf_fF.eo)
 .debug_abbrev  0x0000379e       0x28 d:/programs/xc32/bin/bin/../../lib/gcc/pic32mx/4.8.3/../../../../pic32mx/lib\libc.a(_fputc_simple.o)
 .debug_abbrev  0x000037c6       0x28 d:/programs/xc32/bin/bin/../../lib/gcc/pic32mx/4.8.3/../../../../pic32mx/lib\libc.a(_flsbuf_simple.o)
 .debug_abbrev  0x000037ee       0x45 d:/programs/xc32/bin/bin/../../lib/gcc/pic32mx/4.8.3/../../../../pic32mx/lib\libc.a(doprnt_cdfFnopsuxX.eo)
 .debug_abbrev  0x00003833       0x37 d:/programs/xc32/bin/bin/../../lib/gcc/pic32mx/4.8.3/../../../../pic32mx/lib\libe.a(_fixunsdfdi.o)
 .debug_abbrev  0x0000386a       0x28 d:/programs/xc32/bin/bin/../../lib/gcc/pic32mx/4.8.3/../../../../pic32mx/lib\libe.a(_orderdf2.o)
 .debug_abbrev  0x00003892       0x28 d:/programs/xc32/bin/bin/../../lib/gcc/pic32mx/4.8.3/../../../../pic32mx/lib\libe.a(_fixdfdi.o)
 .debug_abbrev  0x000038ba       0x64 d:/programs/xc32/bin/bin/../../lib/gcc/pic32mx/4.8.3\libgcc.a(_floatundidf.o)
 .debug_abbrev  0x0000391e      0x147 d:/programs/xc32/bin/bin/../../lib/gcc/pic32mx/4.8.3\libgcc.a(_umoddi3.o)
 .debug_abbrev  0x00003a65       0x62 d:/programs/xc32/bin/bin/../../lib/gcc/pic32mx/4.8.3\libgcc.a(floatunsidf.o)
 .debug_abbrev  0x00003ac7       0x28 d:/programs/xc32/bin/bin/../../lib/gcc/pic32mx/4.8.3/../../../../pic32mx/lib\libpic32.a(write.o)

.debug_line     0x00000000     0x673a
 *(.debug_line)
 .debug_line    0x00000000       0x99 d:/programs/xc32/bin/bin/../../lib/gcc/pic32mx/4.8.3/../../../../pic32mx/lib\software-debug-break.o
 .debug_line    0x00000099      0x261 build/default/debug/MPU6050.o
 .debug_line    0x000002fa      0x280 build/default/debug/BNO055.o
 .debug_line    0x0000057a      0x23c build/default/debug/_ext/1360937237/i2c_personal.o
 .debug_line    0x000007b6      0x3c9 build/default/debug/_ext/1360937237/interrupt_callbacks.o
 .debug_line    0x00000b7f       0xb4 build/default/debug/_ext/1360937237/state_estimation.o
 .debug_line    0x00000c33       0xa2 build/default/debug/_ext/1360937237/uart_bluetooth.o
 .debug_line    0x00000cd5      0x1b5 build/default/debug/_ext/1865301019/plib_icap4.o
 .debug_line    0x00000e8a      0x1b5 build/default/debug/_ext/1865301019/plib_icap2.o
 .debug_line    0x0000103f      0x1b5 build/default/debug/_ext/1865301019/plib_icap3.o
 .debug_line    0x000011f4       0xc8 build/default/debug/_ext/1360937237/main.o
 .debug_line    0x000012bc      0x9ac build/default/debug/_ext/1171490990/initialization.o
 .debug_line    0x00001c68      0x164 build/default/debug/_ext/1171490990/interrupts.o
 .debug_line    0x00001dcc       0xb6 build/default/debug/_ext/1171490990/exceptions.o
 .debug_line    0x00001e82       0x9b build/default/debug/_ext/163028504/xc32_monitor.o
 .debug_line    0x00001f1d       0x91 build/default/debug/_ext/60165520/plib_clk.o
 .debug_line    0x00001fae      0x1cb build/default/debug/_ext/1865254177/plib_gpio.o
 .debug_line    0x00002179      0x1b9 build/default/debug/_ext/1865200349/plib_evic.o
 .debug_line    0x00002332      0x1b5 build/default/debug/_ext/1865301019/plib_icap1.o
 .debug_line    0x000024e7      0x186 build/default/debug/_ext/1865480137/plib_ocmp1.o
 .debug_line    0x0000266d      0x186 build/default/debug/_ext/1865480137/plib_ocmp4.o
 .debug_line    0x000027f3      0x186 build/default/debug/_ext/1865480137/plib_ocmp2.o
 .debug_line    0x00002979      0x697 build/default/debug/_ext/158385033/drv_i2c.o
 .debug_line    0x00003010      0x186 build/default/debug/_ext/1865480137/plib_ocmp3.o
 .debug_line    0x00003196      0x780 build/default/debug/_ext/101884895/sys_time.o
 .debug_line    0x00003916      0x2e8 build/default/debug/_ext/1865657120/plib_uart6.o
 .debug_line    0x00003bfe      0x1fe build/default/debug/_ext/1249264884/plib_coretimer.o
 .debug_line    0x00003dfc      0x1f5 build/default/debug/_ext/60181895/plib_tmr4.o
 .debug_line    0x00003ff1      0x805 build/default/debug/_ext/869808652/drv_usart.o
 .debug_line    0x000047f6      0x2f6 build/default/debug/_ext/60169480/plib_i2c5.o
 .debug_line    0x00004aec      0x1f5 build/default/debug/_ext/60181895/plib_tmr2.o
 .debug_line    0x00004ce1      0x196 build/default/debug/_ext/60181895/plib_tmr3.o
 .debug_line    0x00004e77      0x1fb build/default/debug/_ext/1865638794/plib_tmr1.o
 .debug_line    0x00005072      0x17e build/default/debug/_ext/1881668453/sys_int.o
 .debug_line    0x000051f0       0xe7 build/default/debug/_ext/14461671/sys_dma.o
 .debug_line    0x000052d7      0x795 build/default/debug/_ext/1360937237/app.o
 .debug_line    0x00005a6c       0xc4 build/default/debug/_ext/1171490990/tasks.o
 .debug_line    0x00005b30      0x147 C:\Users\samfi\AppData\Local\Temp\ccuXFrqE.o
 .debug_line    0x00005c77       0xf7 d:/programs/xc32/bin/bin/../../lib/gcc/pic32mx/4.8.3\libgcc.a(_udivdi3.o)
 .debug_line    0x00005d6e       0x94 d:/programs/xc32/bin/bin/../../lib/gcc/pic32mx/4.8.3\libgcc.a(floatunsisf.o)
 .debug_line    0x00005e02       0xa6 d:/programs/xc32/bin/bin/../../lib/gcc/pic32mx/4.8.3/../../../../pic32mx/lib\libpic32.a(default-bootstrap-exception-handler.o)
 .debug_line    0x00005ea8       0x93 d:/programs/xc32/bin/bin/../../lib/gcc/pic32mx/4.8.3/../../../../pic32mx/lib\libpic32.a(default-on-reset.o)
 .debug_line    0x00005f3b       0x97 d:/programs/xc32/bin/bin/../../lib/gcc/pic32mx/4.8.3/../../../../pic32mx/lib\libpic32.a(default-on-bootstrap.o)
 .debug_line    0x00005fd2       0xa5 d:/programs/xc32/bin/bin/../../lib/gcc/pic32mx/4.8.3/../../../../pic32mx/lib\libpic32.a(defaultinterrupt.o)
 .debug_line    0x00006077       0x7e d:/programs/xc32/bin/bin/../../lib/gcc/pic32mx/4.8.3/../../../../pic32mx/lib\libc.a(printf_cdnopsuxX.eo)
 .debug_line    0x000060f5       0x7f d:/programs/xc32/bin/bin/../../lib/gcc/pic32mx/4.8.3/../../../../pic32mx/lib\libc.a(sprintf_fF.eo)
 .debug_line    0x00006174        0x0 d:/programs/xc32/bin/bin/../../lib/gcc/pic32mx/4.8.3/../../../../pic32mx/lib\libc.a(_iob.o)
 .debug_line    0x00006174       0x7d d:/programs/xc32/bin/bin/../../lib/gcc/pic32mx/4.8.3/../../../../pic32mx/lib\libc.a(_fputc_simple.o)
 .debug_line    0x000061f1        0x0 d:/programs/xc32/bin/bin/../../lib/gcc/pic32mx/4.8.3/../../../../pic32mx/lib\libc.a(ctype.o)
 .debug_line    0x000061f1        0x0 d:/programs/xc32/bin/bin/../../lib/gcc/pic32mx/4.8.3/../../../../pic32mx/lib\libc.a(ldpowers.o)
 .debug_line    0x000061f1       0x7e d:/programs/xc32/bin/bin/../../lib/gcc/pic32mx/4.8.3/../../../../pic32mx/lib\libc.a(_flsbuf_simple.o)
 .debug_line    0x0000626f       0x7e d:/programs/xc32/bin/bin/../../lib/gcc/pic32mx/4.8.3/../../../../pic32mx/lib\libc.a(doprnt_cdfFnopsuxX.eo)
 .debug_line    0x000062ed       0x82 d:/programs/xc32/bin/bin/../../lib/gcc/pic32mx/4.8.3/../../../../pic32mx/lib\libe.a(_fixunsdfdi.o)
 .debug_line    0x0000636f       0x81 d:/programs/xc32/bin/bin/../../lib/gcc/pic32mx/4.8.3/../../../../pic32mx/lib\libe.a(_orderdf2.o)
 .debug_line    0x000063f0       0x81 d:/programs/xc32/bin/bin/../../lib/gcc/pic32mx/4.8.3/../../../../pic32mx/lib\libe.a(_fixdfdi.o)
 .debug_line    0x00006471       0xa5 d:/programs/xc32/bin/bin/../../lib/gcc/pic32mx/4.8.3\libgcc.a(_floatundidf.o)
 .debug_line    0x00006516      0x109 d:/programs/xc32/bin/bin/../../lib/gcc/pic32mx/4.8.3\libgcc.a(_umoddi3.o)
 .debug_line    0x0000661f       0x93 d:/programs/xc32/bin/bin/../../lib/gcc/pic32mx/4.8.3\libgcc.a(floatunsidf.o)
 .debug_line    0x000066b2       0x88 d:/programs/xc32/bin/bin/../../lib/gcc/pic32mx/4.8.3/../../../../pic32mx/lib\libpic32.a(write.o)

.debug_frame    0x00000000     0x1f94
 *(.debug_frame)
 .debug_frame   0x00000000       0x20 d:/programs/xc32/bin/bin/../../lib/gcc/pic32mx/4.8.3/../../../../pic32mx/lib\software-debug-break.o
 .debug_frame   0x00000020       0x50 build/default/debug/MPU6050.o
 .debug_frame   0x00000070       0x70 build/default/debug/BNO055.o
 .debug_frame   0x000000e0       0x80 build/default/debug/_ext/1360937237/i2c_personal.o
 .debug_frame   0x00000160       0xcc build/default/debug/_ext/1360937237/interrupt_callbacks.o
 .debug_frame   0x0000022c       0x44 build/default/debug/_ext/1360937237/state_estimation.o
 .debug_frame   0x00000270       0x30 build/default/debug/_ext/1360937237/uart_bluetooth.o
 .debug_frame   0x000002a0       0x8c build/default/debug/_ext/1865301019/plib_icap4.o
 .debug_frame   0x0000032c       0x8c build/default/debug/_ext/1865301019/plib_icap2.o
 .debug_frame   0x000003b8       0x8c build/default/debug/_ext/1865301019/plib_icap3.o
 .debug_frame   0x00000444       0x28 build/default/debug/_ext/1360937237/main.o
 .debug_frame   0x0000046c       0x30 build/default/debug/_ext/1171490990/initialization.o
 .debug_frame   0x0000049c      0x380 build/default/debug/_ext/1171490990/interrupts.o
 .debug_frame   0x0000081c       0x28 build/default/debug/_ext/1171490990/exceptions.o
 .debug_frame   0x00000844       0x30 build/default/debug/_ext/163028504/xc32_monitor.o
 .debug_frame   0x00000874       0x20 build/default/debug/_ext/60165520/plib_clk.o
 .debug_frame   0x00000894       0xa0 build/default/debug/_ext/1865254177/plib_gpio.o
 .debug_frame   0x00000934       0x80 build/default/debug/_ext/1865200349/plib_evic.o
 .debug_frame   0x000009b4       0x8c build/default/debug/_ext/1865301019/plib_icap1.o
 .debug_frame   0x00000a40       0x70 build/default/debug/_ext/1865480137/plib_ocmp1.o
 .debug_frame   0x00000ab0       0x70 build/default/debug/_ext/1865480137/plib_ocmp4.o
 .debug_frame   0x00000b20       0x70 build/default/debug/_ext/1865480137/plib_ocmp2.o
 .debug_frame   0x00000b90      0x204 build/default/debug/_ext/158385033/drv_i2c.o
 .debug_frame   0x00000d94       0x70 build/default/debug/_ext/1865480137/plib_ocmp3.o
 .debug_frame   0x00000e04      0x3e4 build/default/debug/_ext/101884895/sys_time.o
 .debug_frame   0x000011e8       0xec build/default/debug/_ext/1865657120/plib_uart6.o
 .debug_frame   0x000012d4      0x110 build/default/debug/_ext/1249264884/plib_coretimer.o
 .debug_frame   0x000013e4       0xcc build/default/debug/_ext/60181895/plib_tmr4.o
 .debug_frame   0x000014b0      0x30c build/default/debug/_ext/869808652/drv_usart.o
 .debug_frame   0x000017bc       0xe0 build/default/debug/_ext/60169480/plib_i2c5.o
 .debug_frame   0x0000189c       0xcc build/default/debug/_ext/60181895/plib_tmr2.o
 .debug_frame   0x00001968       0x80 build/default/debug/_ext/60181895/plib_tmr3.o
 .debug_frame   0x000019e8       0xcc build/default/debug/_ext/1865638794/plib_tmr1.o
 .debug_frame   0x00001ab4       0xa0 build/default/debug/_ext/1881668453/sys_int.o
 .debug_frame   0x00001b54       0x40 build/default/debug/_ext/14461671/sys_dma.o
 .debug_frame   0x00001b94       0xa4 build/default/debug/_ext/1360937237/app.o
 .debug_frame   0x00001c38       0x2c build/default/debug/_ext/1171490990/tasks.o
 .debug_frame   0x00001c64       0x20 d:/programs/xc32/bin/bin/../../lib/gcc/pic32mx/4.8.3\libgcc.a(_udivdi3.o)
 .debug_frame   0x00001c84       0x30 d:/programs/xc32/bin/bin/../../lib/gcc/pic32mx/4.8.3\libgcc.a(floatunsisf.o)
 .debug_frame   0x00001cb4       0x2c d:/programs/xc32/bin/bin/../../lib/gcc/pic32mx/4.8.3/../../../../pic32mx/lib\libpic32.a(default-bootstrap-exception-handler.o)
 .debug_frame   0x00001ce0       0x20 d:/programs/xc32/bin/bin/../../lib/gcc/pic32mx/4.8.3/../../../../pic32mx/lib\libpic32.a(default-on-reset.o)
 .debug_frame   0x00001d00       0x20 d:/programs/xc32/bin/bin/../../lib/gcc/pic32mx/4.8.3/../../../../pic32mx/lib\libpic32.a(default-on-bootstrap.o)
 .debug_frame   0x00001d20       0x20 d:/programs/xc32/bin/bin/../../lib/gcc/pic32mx/4.8.3/../../../../pic32mx/lib\libpic32.a(defaultinterrupt.o)
 .debug_frame   0x00001d40       0x2c d:/programs/xc32/bin/bin/../../lib/gcc/pic32mx/4.8.3/../../../../pic32mx/lib\libc.a(printf_cdnopsuxX.eo)
 .debug_frame   0x00001d6c       0x2c d:/programs/xc32/bin/bin/../../lib/gcc/pic32mx/4.8.3/../../../../pic32mx/lib\libc.a(sprintf_fF.eo)
 .debug_frame   0x00001d98       0x30 d:/programs/xc32/bin/bin/../../lib/gcc/pic32mx/4.8.3/../../../../pic32mx/lib\libc.a(_fputc_simple.o)
 .debug_frame   0x00001dc8       0x38 d:/programs/xc32/bin/bin/../../lib/gcc/pic32mx/4.8.3/../../../../pic32mx/lib\libc.a(_flsbuf_simple.o)
 .debug_frame   0x00001e00       0x70 d:/programs/xc32/bin/bin/../../lib/gcc/pic32mx/4.8.3/../../../../pic32mx/lib\libc.a(doprnt_cdfFnopsuxX.eo)
 .debug_frame   0x00001e70       0x34 d:/programs/xc32/bin/bin/../../lib/gcc/pic32mx/4.8.3/../../../../pic32mx/lib\libe.a(_fixunsdfdi.o)
 .debug_frame   0x00001ea4       0x20 d:/programs/xc32/bin/bin/../../lib/gcc/pic32mx/4.8.3/../../../../pic32mx/lib\libe.a(_orderdf2.o)
 .debug_frame   0x00001ec4       0x20 d:/programs/xc32/bin/bin/../../lib/gcc/pic32mx/4.8.3/../../../../pic32mx/lib\libe.a(_fixdfdi.o)
 .debug_frame   0x00001ee4       0x2c d:/programs/xc32/bin/bin/../../lib/gcc/pic32mx/4.8.3\libgcc.a(_floatundidf.o)
 .debug_frame   0x00001f10       0x20 d:/programs/xc32/bin/bin/../../lib/gcc/pic32mx/4.8.3\libgcc.a(_umoddi3.o)
 .debug_frame   0x00001f30       0x2c d:/programs/xc32/bin/bin/../../lib/gcc/pic32mx/4.8.3\libgcc.a(floatunsidf.o)
 .debug_frame   0x00001f5c       0x38 d:/programs/xc32/bin/bin/../../lib/gcc/pic32mx/4.8.3/../../../../pic32mx/lib\libpic32.a(write.o)

.debug_str      0x00000000      0x5c1
 *(.debug_str)
 .debug_str     0x00000000        0x0 d:/programs/xc32/bin/bin/../../lib/gcc/pic32mx/4.8.3/../../../../pic32mx/lib\software-debug-break.o
 .debug_str     0x00000000       0x19 build/default/debug/MPU6050.o
 .debug_str     0x00000019       0x19 build/default/debug/BNO055.o
 .debug_str     0x00000032       0x25 build/default/debug/_ext/1360937237/i2c_personal.o
 .debug_str     0x00000057       0x19 build/default/debug/_ext/1360937237/interrupt_callbacks.o
 .debug_str     0x00000070        0x9 build/default/debug/_ext/1360937237/state_estimation.o
 .debug_str     0x00000079        0x0 build/default/debug/_ext/1360937237/uart_bluetooth.o
 .debug_str     0x00000079        0x9 build/default/debug/_ext/1865301019/plib_icap4.o
 .debug_str     0x00000082        0x9 build/default/debug/_ext/1865301019/plib_icap2.o
 .debug_str     0x0000008b        0x9 build/default/debug/_ext/1865301019/plib_icap3.o
 .debug_str     0x00000094        0x0 build/default/debug/_ext/1360937237/main.o
 .debug_str     0x00000094       0xbd build/default/debug/_ext/1171490990/initialization.o
 .debug_str     0x00000151        0x0 build/default/debug/_ext/1171490990/interrupts.o
 .debug_str     0x00000151        0x0 build/default/debug/_ext/1171490990/exceptions.o
 .debug_str     0x00000151        0x0 build/default/debug/_ext/163028504/xc32_monitor.o
 .debug_str     0x00000151        0x0 build/default/debug/_ext/60165520/plib_clk.o
 .debug_str     0x00000151        0xa build/default/debug/_ext/1865254177/plib_gpio.o
 .debug_str     0x0000015b        0x7 build/default/debug/_ext/1865200349/plib_evic.o
 .debug_str     0x00000162        0x9 build/default/debug/_ext/1865301019/plib_icap1.o
 .debug_str     0x0000016b        0x0 build/default/debug/_ext/1865480137/plib_ocmp1.o
 .debug_str     0x0000016b        0x0 build/default/debug/_ext/1865480137/plib_ocmp4.o
 .debug_str     0x0000016b        0x0 build/default/debug/_ext/1865480137/plib_ocmp2.o
 .debug_str     0x0000016b      0x15a build/default/debug/_ext/158385033/drv_i2c.o
 .debug_str     0x000002c5        0x0 build/default/debug/_ext/1865480137/plib_ocmp3.o
 .debug_str     0x000002c5      0x10a build/default/debug/_ext/101884895/sys_time.o
 .debug_str     0x000003cf       0x10 build/default/debug/_ext/1865657120/plib_uart6.o
 .debug_str     0x000003df       0x1d build/default/debug/_ext/1249264884/plib_coretimer.o
 .debug_str     0x000003fc        0xc build/default/debug/_ext/60181895/plib_tmr4.o
 .debug_str     0x00000408      0x169 build/default/debug/_ext/869808652/drv_usart.o
 .debug_str     0x00000571       0x19 build/default/debug/_ext/60169480/plib_i2c5.o
 .debug_str     0x0000058a        0xc build/default/debug/_ext/60181895/plib_tmr2.o
 .debug_str     0x00000596        0x0 build/default/debug/_ext/60181895/plib_tmr3.o
 .debug_str     0x00000596        0xc build/default/debug/_ext/1865638794/plib_tmr1.o
 .debug_str     0x000005a2        0x0 build/default/debug/_ext/1881668453/sys_int.o
 .debug_str     0x000005a2        0x8 build/default/debug/_ext/14461671/sys_dma.o
 .debug_str     0x000005aa       0x17 build/default/debug/_ext/1360937237/app.o
 .debug_str     0x000005c1        0x0 build/default/debug/_ext/1171490990/tasks.o
 .debug_str     0x000005c1        0x0 d:/programs/xc32/bin/bin/../../lib/gcc/pic32mx/4.8.3\libgcc.a(_udivdi3.o)
 .debug_str     0x000005c1        0x0 d:/programs/xc32/bin/bin/../../lib/gcc/pic32mx/4.8.3\libgcc.a(floatunsisf.o)
 .debug_str     0x000005c1        0x0 d:/programs/xc32/bin/bin/../../lib/gcc/pic32mx/4.8.3/../../../../pic32mx/lib\libpic32.a(default-bootstrap-exception-handler.o)
 .debug_str     0x000005c1        0x0 d:/programs/xc32/bin/bin/../../lib/gcc/pic32mx/4.8.3/../../../../pic32mx/lib\libpic32.a(default-on-reset.o)
 .debug_str     0x000005c1        0x0 d:/programs/xc32/bin/bin/../../lib/gcc/pic32mx/4.8.3/../../../../pic32mx/lib\libpic32.a(default-on-bootstrap.o)
 .debug_str     0x000005c1        0x0 d:/programs/xc32/bin/bin/../../lib/gcc/pic32mx/4.8.3/../../../../pic32mx/lib\libpic32.a(defaultinterrupt.o)
 .debug_str     0x000005c1        0x0 d:/programs/xc32/bin/bin/../../lib/gcc/pic32mx/4.8.3/../../../../pic32mx/lib\libc.a(printf_cdnopsuxX.eo)
 .debug_str     0x000005c1        0x0 d:/programs/xc32/bin/bin/../../lib/gcc/pic32mx/4.8.3/../../../../pic32mx/lib\libc.a(sprintf_fF.eo)
 .debug_str     0x000005c1        0x0 d:/programs/xc32/bin/bin/../../lib/gcc/pic32mx/4.8.3/../../../../pic32mx/lib\libc.a(_iob.o)
 .debug_str     0x000005c1        0x0 d:/programs/xc32/bin/bin/../../lib/gcc/pic32mx/4.8.3/../../../../pic32mx/lib\libc.a(_fputc_simple.o)
 .debug_str     0x000005c1        0x0 d:/programs/xc32/bin/bin/../../lib/gcc/pic32mx/4.8.3/../../../../pic32mx/lib\libc.a(ctype.o)
 .debug_str     0x000005c1        0x0 d:/programs/xc32/bin/bin/../../lib/gcc/pic32mx/4.8.3/../../../../pic32mx/lib\libc.a(ldpowers.o)
 .debug_str     0x000005c1        0x0 d:/programs/xc32/bin/bin/../../lib/gcc/pic32mx/4.8.3/../../../../pic32mx/lib\libc.a(_flsbuf_simple.o)
 .debug_str     0x000005c1        0x0 d:/programs/xc32/bin/bin/../../lib/gcc/pic32mx/4.8.3/../../../../pic32mx/lib\libc.a(doprnt_cdfFnopsuxX.eo)
 .debug_str     0x000005c1        0x0 d:/programs/xc32/bin/bin/../../lib/gcc/pic32mx/4.8.3/../../../../pic32mx/lib\libe.a(_fixunsdfdi.o)
 .debug_str     0x000005c1        0x0 d:/programs/xc32/bin/bin/../../lib/gcc/pic32mx/4.8.3/../../../../pic32mx/lib\libe.a(_orderdf2.o)
 .debug_str     0x000005c1        0x0 d:/programs/xc32/bin/bin/../../lib/gcc/pic32mx/4.8.3/../../../../pic32mx/lib\libe.a(_fixdfdi.o)
 .debug_str     0x000005c1        0x0 d:/programs/xc32/bin/bin/../../lib/gcc/pic32mx/4.8.3\libgcc.a(_floatundidf.o)
 .debug_str     0x000005c1        0x0 d:/programs/xc32/bin/bin/../../lib/gcc/pic32mx/4.8.3\libgcc.a(_umoddi3.o)
 .debug_str     0x000005c1        0x0 d:/programs/xc32/bin/bin/../../lib/gcc/pic32mx/4.8.3\libgcc.a(floatunsidf.o)
 .debug_str     0x000005c1        0x0 d:/programs/xc32/bin/bin/../../lib/gcc/pic32mx/4.8.3/../../../../pic32mx/lib\libpic32.a(write.o)

.debug_loc      0x00000000     0x79a4
 *(.debug_loc)
 .debug_loc     0x00000000      0x2b3 build/default/debug/MPU6050.o
 .debug_loc     0x000002b3      0x34b build/default/debug/BNO055.o
 .debug_loc     0x000005fe      0x302 build/default/debug/_ext/1360937237/i2c_personal.o
 .debug_loc     0x00000900      0x39a build/default/debug/_ext/1360937237/interrupt_callbacks.o
 .debug_loc     0x00000c9a       0xb5 build/default/debug/_ext/1360937237/state_estimation.o
 .debug_loc     0x00000d4f       0x14 build/default/debug/_ext/1360937237/uart_bluetooth.o
 .debug_loc     0x00000d63       0x40 build/default/debug/_ext/1865301019/plib_icap4.o
 .debug_loc     0x00000da3       0x40 build/default/debug/_ext/1865301019/plib_icap2.o
 .debug_loc     0x00000de3       0x40 build/default/debug/_ext/1865301019/plib_icap3.o
 .debug_loc     0x00000e23       0x20 build/default/debug/_ext/1360937237/main.o
 .debug_loc     0x00000e43       0x4d build/default/debug/_ext/1171490990/initialization.o
 .debug_loc     0x00000e90      0x1c2 build/default/debug/_ext/1171490990/interrupts.o
 .debug_loc     0x00001052       0x20 build/default/debug/_ext/1171490990/exceptions.o
 .debug_loc     0x00001072      0x129 build/default/debug/_ext/1865254177/plib_gpio.o
 .debug_loc     0x0000119b       0xc4 build/default/debug/_ext/1865200349/plib_evic.o
 .debug_loc     0x0000125f       0x40 build/default/debug/_ext/1865301019/plib_icap1.o
 .debug_loc     0x0000129f     0x12ff build/default/debug/_ext/158385033/drv_i2c.o
 .debug_loc     0x0000259e     0x1af0 build/default/debug/_ext/101884895/sys_time.o
 .debug_loc     0x0000408e      0x430 build/default/debug/_ext/1865657120/plib_uart6.o
 .debug_loc     0x000044be      0x1b5 build/default/debug/_ext/1249264884/plib_coretimer.o
 .debug_loc     0x00004673       0x3f build/default/debug/_ext/60181895/plib_tmr4.o
 .debug_loc     0x000046b2     0x1802 build/default/debug/_ext/869808652/drv_usart.o
 .debug_loc     0x00005eb4      0x11d build/default/debug/_ext/60169480/plib_i2c5.o
 .debug_loc     0x00005fd1       0x3f build/default/debug/_ext/60181895/plib_tmr2.o
 .debug_loc     0x00006010       0x3f build/default/debug/_ext/1865638794/plib_tmr1.o
 .debug_loc     0x0000604f      0x19d build/default/debug/_ext/1881668453/sys_int.o
 .debug_loc     0x000061ec      0x120 build/default/debug/_ext/1360937237/app.o
 .debug_loc     0x0000630c       0x2c build/default/debug/_ext/1171490990/tasks.o
 .debug_loc     0x00006338      0xa6a d:/programs/xc32/bin/bin/../../lib/gcc/pic32mx/4.8.3\libgcc.a(_udivdi3.o)
 .debug_loc     0x00006da2       0x74 d:/programs/xc32/bin/bin/../../lib/gcc/pic32mx/4.8.3\libgcc.a(floatunsisf.o)
 .debug_loc     0x00006e16       0x2c d:/programs/xc32/bin/bin/../../lib/gcc/pic32mx/4.8.3/../../../../pic32mx/lib\libpic32.a(default-bootstrap-exception-handler.o)
 .debug_loc     0x00006e42       0x2c d:/programs/xc32/bin/bin/../../lib/gcc/pic32mx/4.8.3/../../../../pic32mx/lib\libe.a(_fixunsdfdi.o)
 .debug_loc     0x00006e6e       0x41 d:/programs/xc32/bin/bin/../../lib/gcc/pic32mx/4.8.3\libgcc.a(_floatundidf.o)
 .debug_loc     0x00006eaf      0xa3d d:/programs/xc32/bin/bin/../../lib/gcc/pic32mx/4.8.3\libgcc.a(_umoddi3.o)
 .debug_loc     0x000078ec       0x80 d:/programs/xc32/bin/bin/../../lib/gcc/pic32mx/4.8.3\libgcc.a(floatunsidf.o)
 .debug_loc     0x0000796c       0x38 d:/programs/xc32/bin/bin/../../lib/gcc/pic32mx/4.8.3/../../../../pic32mx/lib\libpic32.a(write.o)

.debug_macinfo
 *(.debug_macinfo)

.debug_weaknames
 *(.debug_weaknames)

.debug_funcnames
 *(.debug_funcnames)

.debug_typenames
 *(.debug_typenames)

.debug_varnames
 *(.debug_varnames)

.debug_pubtypes
 *(.debug_pubtypes)

.debug_ranges   0x00000000      0xe58
 *(.debug_ranges)
 .debug_ranges  0x00000000       0x10 d:/programs/xc32/bin/bin/../../lib/gcc/pic32mx/4.8.3/../../../../pic32mx/lib\software-debug-break.o
 .debug_ranges  0x00000010       0x18 build/default/debug/MPU6050.o
 .debug_ranges  0x00000028       0x20 build/default/debug/BNO055.o
 .debug_ranges  0x00000048       0x28 build/default/debug/_ext/1360937237/i2c_personal.o
 .debug_ranges  0x00000070       0x40 build/default/debug/_ext/1360937237/interrupt_callbacks.o
 .debug_ranges  0x000000b0       0x18 build/default/debug/_ext/1360937237/state_estimation.o
 .debug_ranges  0x000000c8       0x18 build/default/debug/_ext/1360937237/uart_bluetooth.o
 .debug_ranges  0x000000e0       0x40 build/default/debug/_ext/1865301019/plib_icap4.o
 .debug_ranges  0x00000120       0x40 build/default/debug/_ext/1865301019/plib_icap2.o
 .debug_ranges  0x00000160       0x40 build/default/debug/_ext/1865301019/plib_icap3.o
 .debug_ranges  0x000001a0       0x10 build/default/debug/_ext/1360937237/main.o
 .debug_ranges  0x000001b0       0x10 build/default/debug/_ext/1171490990/initialization.o
 .debug_ranges  0x000001c0       0x58 build/default/debug/_ext/1171490990/interrupts.o
 .debug_ranges  0x00000218       0x10 build/default/debug/_ext/1171490990/exceptions.o
 .debug_ranges  0x00000228       0x18 build/default/debug/_ext/163028504/xc32_monitor.o
 .debug_ranges  0x00000240       0x10 build/default/debug/_ext/60165520/plib_clk.o
 .debug_ranges  0x00000250       0x50 build/default/debug/_ext/1865254177/plib_gpio.o
 .debug_ranges  0x000002a0       0x40 build/default/debug/_ext/1865200349/plib_evic.o
 .debug_ranges  0x000002e0       0x40 build/default/debug/_ext/1865301019/plib_icap1.o
 .debug_ranges  0x00000320       0x38 build/default/debug/_ext/1865480137/plib_ocmp1.o
 .debug_ranges  0x00000358       0x38 build/default/debug/_ext/1865480137/plib_ocmp4.o
 .debug_ranges  0x00000390       0x38 build/default/debug/_ext/1865480137/plib_ocmp2.o
 .debug_ranges  0x000003c8       0xe8 build/default/debug/_ext/158385033/drv_i2c.o
 .debug_ranges  0x000004b0       0x38 build/default/debug/_ext/1865480137/plib_ocmp3.o
 .debug_ranges  0x000004e8      0x180 build/default/debug/_ext/101884895/sys_time.o
 .debug_ranges  0x00000668       0xb8 build/default/debug/_ext/1865657120/plib_uart6.o
 .debug_ranges  0x00000720       0x58 build/default/debug/_ext/1249264884/plib_coretimer.o
 .debug_ranges  0x00000778       0x60 build/default/debug/_ext/60181895/plib_tmr4.o
 .debug_ranges  0x000007d8      0x150 build/default/debug/_ext/869808652/drv_usart.o
 .debug_ranges  0x00000928      0x118 build/default/debug/_ext/60169480/plib_i2c5.o
 .debug_ranges  0x00000a40       0x60 build/default/debug/_ext/60181895/plib_tmr2.o
 .debug_ranges  0x00000aa0       0x40 build/default/debug/_ext/60181895/plib_tmr3.o
 .debug_ranges  0x00000ae0       0x60 build/default/debug/_ext/1865638794/plib_tmr1.o
 .debug_ranges  0x00000b40       0x30 build/default/debug/_ext/1881668453/sys_int.o
 .debug_ranges  0x00000b70       0x20 build/default/debug/_ext/14461671/sys_dma.o
 .debug_ranges  0x00000b90       0x38 build/default/debug/_ext/1360937237/app.o
 .debug_ranges  0x00000bc8       0x10 build/default/debug/_ext/1171490990/tasks.o
 .debug_ranges  0x00000bd8       0x38 C:\Users\samfi\AppData\Local\Temp\ccuXFrqE.o
 .debug_ranges  0x00000c10       0x98 d:/programs/xc32/bin/bin/../../lib/gcc/pic32mx/4.8.3\libgcc.a(_udivdi3.o)
 .debug_ranges  0x00000ca8       0x10 d:/programs/xc32/bin/bin/../../lib/gcc/pic32mx/4.8.3/../../../../pic32mx/lib\libpic32.a(default-bootstrap-exception-handler.o)
 .debug_ranges  0x00000cb8       0x10 d:/programs/xc32/bin/bin/../../lib/gcc/pic32mx/4.8.3/../../../../pic32mx/lib\libpic32.a(default-on-reset.o)
 .debug_ranges  0x00000cc8       0x10 d:/programs/xc32/bin/bin/../../lib/gcc/pic32mx/4.8.3/../../../../pic32mx/lib\libpic32.a(default-on-bootstrap.o)
 .debug_ranges  0x00000cd8       0x10 d:/programs/xc32/bin/bin/../../lib/gcc/pic32mx/4.8.3/../../../../pic32mx/lib\libpic32.a(defaultinterrupt.o)
 .debug_ranges  0x00000ce8       0x10 d:/programs/xc32/bin/bin/../../lib/gcc/pic32mx/4.8.3/../../../../pic32mx/lib\libc.a(printf_cdnopsuxX.eo)
 .debug_ranges  0x00000cf8       0x10 d:/programs/xc32/bin/bin/../../lib/gcc/pic32mx/4.8.3/../../../../pic32mx/lib\libc.a(sprintf_fF.eo)
 .debug_ranges  0x00000d08       0x10 d:/programs/xc32/bin/bin/../../lib/gcc/pic32mx/4.8.3/../../../../pic32mx/lib\libc.a(_fputc_simple.o)
 .debug_ranges  0x00000d18       0x10 d:/programs/xc32/bin/bin/../../lib/gcc/pic32mx/4.8.3/../../../../pic32mx/lib\libc.a(_flsbuf_simple.o)
 .debug_ranges  0x00000d28       0x18 d:/programs/xc32/bin/bin/../../lib/gcc/pic32mx/4.8.3/../../../../pic32mx/lib\libc.a(doprnt_cdfFnopsuxX.eo)
 .debug_ranges  0x00000d40       0x10 d:/programs/xc32/bin/bin/../../lib/gcc/pic32mx/4.8.3/../../../../pic32mx/lib\libe.a(_fixunsdfdi.o)
 .debug_ranges  0x00000d50       0x10 d:/programs/xc32/bin/bin/../../lib/gcc/pic32mx/4.8.3/../../../../pic32mx/lib\libe.a(_orderdf2.o)
 .debug_ranges  0x00000d60       0x10 d:/programs/xc32/bin/bin/../../lib/gcc/pic32mx/4.8.3/../../../../pic32mx/lib\libe.a(_fixdfdi.o)
 .debug_ranges  0x00000d70       0xd8 d:/programs/xc32/bin/bin/../../lib/gcc/pic32mx/4.8.3\libgcc.a(_umoddi3.o)
 .debug_ranges  0x00000e48       0x10 d:/programs/xc32/bin/bin/../../lib/gcc/pic32mx/4.8.3/../../../../pic32mx/lib\libpic32.a(write.o)

.gnu.attributes
                0x00000000       0x10
 *(.gnu.attributes)
 .gnu.attributes
                0x00000000       0x10 d:/programs/xc32/bin/bin/../../lib/gcc/pic32mx/4.8.3/../../../../pic32mx/lib\software-debug-break.o
 .gnu.attributes
                0x00000010       0x10 build/default/debug/MPU6050.o
 .gnu.attributes
                0x00000020       0x10 build/default/debug/BNO055.o
 .gnu.attributes
                0x00000030       0x10 build/default/debug/_ext/1360937237/i2c_personal.o
 .gnu.attributes
                0x00000040       0x10 build/default/debug/_ext/1360937237/interrupt_callbacks.o
 .gnu.attributes
                0x00000050       0x10 build/default/debug/_ext/1360937237/state_estimation.o
 .gnu.attributes
                0x00000060       0x10 build/default/debug/_ext/1360937237/uart_bluetooth.o
 .gnu.attributes
                0x00000070       0x10 build/default/debug/_ext/1865301019/plib_icap4.o
 .gnu.attributes
                0x00000080       0x10 build/default/debug/_ext/1865301019/plib_icap2.o
 .gnu.attributes
                0x00000090       0x10 build/default/debug/_ext/1865301019/plib_icap3.o
 .gnu.attributes
                0x000000a0       0x10 build/default/debug/_ext/1360937237/main.o
 .gnu.attributes
                0x000000b0       0x10 build/default/debug/_ext/1171490990/initialization.o
 .gnu.attributes
                0x000000c0       0x10 build/default/debug/_ext/1171490990/interrupts.o
 .gnu.attributes
                0x000000d0       0x10 build/default/debug/_ext/1171490990/exceptions.o
 .gnu.attributes
                0x000000e0       0x10 build/default/debug/_ext/163028504/xc32_monitor.o
 .gnu.attributes
                0x000000f0       0x10 build/default/debug/_ext/60165520/plib_clk.o
 .gnu.attributes
                0x00000100       0x10 build/default/debug/_ext/1865254177/plib_gpio.o
 .gnu.attributes
                0x00000110       0x10 build/default/debug/_ext/1865200349/plib_evic.o
 .gnu.attributes
                0x00000120       0x10 build/default/debug/_ext/1865301019/plib_icap1.o
 .gnu.attributes
                0x00000130       0x10 build/default/debug/_ext/1865480137/plib_ocmp1.o
 .gnu.attributes
                0x00000140       0x10 build/default/debug/_ext/1865480137/plib_ocmp4.o
 .gnu.attributes
                0x00000150       0x10 build/default/debug/_ext/1865480137/plib_ocmp2.o
 .gnu.attributes
                0x00000160       0x10 build/default/debug/_ext/158385033/drv_i2c.o
 .gnu.attributes
                0x00000170       0x10 build/default/debug/_ext/1865480137/plib_ocmp3.o
 .gnu.attributes
                0x00000180       0x10 build/default/debug/_ext/101884895/sys_time.o
 .gnu.attributes
                0x00000190       0x10 build/default/debug/_ext/1865657120/plib_uart6.o
 .gnu.attributes
                0x000001a0       0x10 build/default/debug/_ext/1249264884/plib_coretimer.o
 .gnu.attributes
                0x000001b0       0x10 build/default/debug/_ext/60181895/plib_tmr4.o
 .gnu.attributes
                0x000001c0       0x10 build/default/debug/_ext/869808652/drv_usart.o
 .gnu.attributes
                0x000001d0       0x10 build/default/debug/_ext/60169480/plib_i2c5.o
 .gnu.attributes
                0x000001e0       0x10 build/default/debug/_ext/60181895/plib_tmr2.o
 .gnu.attributes
                0x000001f0       0x10 build/default/debug/_ext/60181895/plib_tmr3.o
 .gnu.attributes
                0x00000200       0x10 build/default/debug/_ext/1865638794/plib_tmr1.o
 .gnu.attributes
                0x00000210       0x10 build/default/debug/_ext/1881668453/sys_int.o
 .gnu.attributes
                0x00000220       0x10 build/default/debug/_ext/14461671/sys_dma.o
 .gnu.attributes
                0x00000230       0x10 build/default/debug/_ext/1360937237/app.o
 .gnu.attributes
                0x00000240       0x10 build/default/debug/_ext/1171490990/tasks.o
 .gnu.attributes
                0x00000250       0x10 d:/programs/xc32/bin/bin/../../lib/gcc/pic32mx/4.8.3\libgcc.a(_udivdi3.o)
 .gnu.attributes
                0x00000260       0x10 d:/programs/xc32/bin/bin/../../lib/gcc/pic32mx/4.8.3\libgcc.a(floatunsisf.o)
 .gnu.attributes
                0x00000270       0x10 d:/programs/xc32/bin/bin/../../lib/gcc/pic32mx/4.8.3/../../../../pic32mx/lib\libpic32.a(default-bootstrap-exception-handler.o)
 .gnu.attributes
                0x00000280       0x10 d:/programs/xc32/bin/bin/../../lib/gcc/pic32mx/4.8.3/../../../../pic32mx/lib\libpic32.a(default-on-reset.o)
 .gnu.attributes
                0x00000290       0x10 d:/programs/xc32/bin/bin/../../lib/gcc/pic32mx/4.8.3/../../../../pic32mx/lib\libpic32.a(default-on-bootstrap.o)
 .gnu.attributes
                0x000002a0       0x10 d:/programs/xc32/bin/bin/../../lib/gcc/pic32mx/4.8.3/../../../../pic32mx/lib\libpic32.a(defaultinterrupt.o)
 .gnu.attributes
                0x000002b0       0x10 d:/programs/xc32/bin/bin/../../lib/gcc/pic32mx/4.8.3/../../../../pic32mx/lib\libc.a(printf_cdnopsuxX.eo)
 .gnu.attributes
                0x000002c0       0x10 d:/programs/xc32/bin/bin/../../lib/gcc/pic32mx/4.8.3/../../../../pic32mx/lib\libc.a(sprintf_fF.eo)
 .gnu.attributes
                0x000002d0       0x10 d:/programs/xc32/bin/bin/../../lib/gcc/pic32mx/4.8.3/../../../../pic32mx/lib\libc.a(_iob.o)
 .gnu.attributes
                0x000002e0       0x10 d:/programs/xc32/bin/bin/../../lib/gcc/pic32mx/4.8.3/../../../../pic32mx/lib\libc.a(_fputc_simple.o)
 .gnu.attributes
                0x000002f0       0x10 d:/programs/xc32/bin/bin/../../lib/gcc/pic32mx/4.8.3/../../../../pic32mx/lib\libc.a(ctype.o)
 .gnu.attributes
                0x00000300       0x10 d:/programs/xc32/bin/bin/../../lib/gcc/pic32mx/4.8.3/../../../../pic32mx/lib\libc.a(ldpowers.o)
 .gnu.attributes
                0x00000310       0x10 d:/programs/xc32/bin/bin/../../lib/gcc/pic32mx/4.8.3/../../../../pic32mx/lib\libc.a(_flsbuf_simple.o)
 .gnu.attributes
                0x00000320       0x10 d:/programs/xc32/bin/bin/../../lib/gcc/pic32mx/4.8.3/../../../../pic32mx/lib\libc.a(doprnt_cdfFnopsuxX.eo)
 .gnu.attributes
                0x00000330       0x10 d:/programs/xc32/bin/bin/../../lib/gcc/pic32mx/4.8.3/../../../../pic32mx/lib\libe.a(_fixunsdfdi.o)
 .gnu.attributes
                0x00000340       0x10 d:/programs/xc32/bin/bin/../../lib/gcc/pic32mx/4.8.3/../../../../pic32mx/lib\libe.a(_orderdf2.o)
 .gnu.attributes
                0x00000350       0x10 d:/programs/xc32/bin/bin/../../lib/gcc/pic32mx/4.8.3/../../../../pic32mx/lib\libe.a(_fixdfdi.o)
 .gnu.attributes
                0x00000360       0x10 d:/programs/xc32/bin/bin/../../lib/gcc/pic32mx/4.8.3\libgcc.a(_floatundidf.o)
 .gnu.attributes
                0x00000370       0x10 d:/programs/xc32/bin/bin/../../lib/gcc/pic32mx/4.8.3\libgcc.a(_umoddi3.o)
 .gnu.attributes
                0x00000380       0x10 d:/programs/xc32/bin/bin/../../lib/gcc/pic32mx/4.8.3\libgcc.a(floatunsidf.o)
 .gnu.attributes
                0x00000390       0x10 d:/programs/xc32/bin/bin/../../lib/gcc/pic32mx/4.8.3/../../../../pic32mx/lib\libpic32.a(write.o)
LOAD d:/programs/xc32/bin/bin/../../lib/gcc/pic32mx/4.8.3\libgcc.a
START GROUP
LOAD d:/programs/xc32/bin/bin/../../lib/gcc/pic32mx/4.8.3/../../../../pic32mx/lib\libpic32.a
LOAD d:/programs/xc32/bin/bin/../../lib/gcc/pic32mx/4.8.3/../../../../pic32mx/lib\libdebug.a
LOAD d:/programs/xc32/bin/bin/../../lib/gcc/pic32mx/4.8.3/../../../../pic32mx/lib\libpic32.a
LOAD d:/programs/xc32/bin/bin/../../lib/gcc/pic32mx/4.8.3/../../../../pic32mx/lib\libc.a
LOAD d:/programs/xc32/bin/bin/../../lib/gcc/pic32mx/4.8.3/../../../../pic32mx/lib\libc.a
LOAD d:/programs/xc32/bin/bin/../../lib/gcc/pic32mx/4.8.3/../../../../pic32mx/lib\libm.a
LOAD d:/programs/xc32/bin/bin/../../lib/gcc/pic32mx/4.8.3/../../../../pic32mx/lib\libe.a
LOAD d:/programs/xc32/bin/bin/../../lib/gcc/pic32mx/4.8.3/../../../../pic32mx/lib\libdsp.a
LOAD d:/programs/xc32/bin/bin/../../lib/gcc/pic32mx/4.8.3\libgcc.a
LOAD d:/programs/xc32/bin/bin/../../lib/gcc/pic32mx/4.8.3/../../../../pic32mx/lib\libpic32.a
END GROUP
LOAD d:/programs/xc32/bin/bin/../../lib/gcc/pic32mx/4.8.3\libgcc.a
OUTPUT(dist/default/debug/FCharmonyv1.X.debug.elf elf32-tradlittlemips)
LOAD stack
LOAD data_init

.reginfo        0x00000000       0x18
 .reginfo       0x00000000       0x18 d:/programs/xc32/bin/bin/../../lib/gcc/pic32mx/4.8.3/../../../../pic32mx/lib\software-debug-break.o

.stack          0xa0001128      0x400
 .stack         0xa0001128      0x400 stack

.bss            0xa00007a4      0x5a8
 .bss           0xa00007a4      0x4bc build/default/debug/_ext/1171490990/initialization.o
 .bss           0xa0000c60       0xec build/default/debug/_ext/101884895/sys_time.o

.data           0xa0000d4c       0xa4
 .data          0xa0000d4c       0xa4 d:/programs/xc32/bin/bin/../../lib/gcc/pic32mx/4.8.3/../../../../pic32mx/lib\libc.a(_iob.o)
                0xa0000d4c                _Files
                0xa0000d50                _iob

.bss            0xa0000df0       0xa4
 .bss           0xa0000df0       0x60 build/default/debug/_ext/869808652/drv_usart.o
 .bss           0xa0000e50       0x44 build/default/debug/_ext/158385033/drv_i2c.o

.bss            0xa0000e94       0x78
 .bss           0xa0000e94       0x44 d:/programs/xc32/bin/bin/../../lib/gcc/pic32mx/4.8.3/../../../../pic32mx/lib\libc.a(_iob.o)
                0xa0000e94                _sobuf
                0xa0000eb4                _sibuf
                0xa0000ed4                _outdone
 .bss           0xa0000ed8       0x34 build/default/debug/_ext/60169480/plib_i2c5.o

.text._vfprintf_cdfFnopsuxX
                0x9d000000     0x1554
 .text._vfprintf_cdfFnopsuxX
                0x9d000000     0x1554 d:/programs/xc32/bin/bin/../../lib/gcc/pic32mx/4.8.3/../../../../pic32mx/lib\libc.a(doprnt_cdfFnopsuxX.eo)
                0x9d000000                _vfprintf_cdnopsuxX
                0x9d000000                _vfprintf_fF
                0x9d000000                _vfprintf_cdfFnopsuxX

.text.APP_Tasks
                0x9d001554      0x838
 .text.APP_Tasks
                0x9d001554      0x838 build/default/debug/_ext/1360937237/app.o
                0x9d001554                APP_Tasks

.text.I2C_5_InterruptHandler
                0x9d001d8c      0x57c
 .text.I2C_5_InterruptHandler
                0x9d001d8c      0x57c build/default/debug/_ext/60169480/plib_i2c5.o
                0x9d001d8c                I2C_5_InterruptHandler

.text.dp32mul   0x9d002308      0x4b8
 .text.dp32mul  0x9d002308      0x4b8 d:/programs/xc32/bin/bin/../../lib/gcc/pic32mx/4.8.3/../../../../pic32mx/lib\libm.a(dp32div.o)
                0x9d002308                dpdiv
                0x9d002308                __divdf3

.text           0x9d0027c0      0x8bc
 .text          0x9d0027c0      0x464 d:/programs/xc32/bin/bin/../../lib/gcc/pic32mx/4.8.3\libgcc.a(_umoddi3.o)
                0x9d0027c0                __umoddi3
 .text          0x9d002c24      0x458 d:/programs/xc32/bin/bin/../../lib/gcc/pic32mx/4.8.3\libgcc.a(_udivdi3.o)
                0x9d002c24                __udivdi3

.text.dp32subadd
                0x9d00307c      0x430
 .text.dp32subadd
                0x9d00307c      0x430 d:/programs/xc32/bin/bin/../../lib/gcc/pic32mx/4.8.3/../../../../pic32mx/lib\libm.a(dp32subadd.o)
                0x9d00307c                dpsub
                0x9d00307c                __subdf3
                0x9d003084                __adddf3
                0x9d003084                dpadd

.text._DRV_I2C_WriteReadTransferAdd
                0x9d0034ac      0x384
 .text._DRV_I2C_WriteReadTransferAdd
                0x9d0034ac      0x384 build/default/debug/_ext/158385033/drv_i2c.o

.text.dp32mul   0x9d003830      0x32c
 .text.dp32mul  0x9d003830      0x32c d:/programs/xc32/bin/bin/../../lib/gcc/pic32mx/4.8.3/../../../../pic32mx/lib\libm.a(dp32mul.o)
                0x9d003830                __muldf3
                0x9d003830                dpmul

.text._DRV_I2C_PLibCallbackHandler
                0x9d003b5c      0x290
 .text._DRV_I2C_PLibCallbackHandler
                0x9d003b5c      0x290 build/default/debug/_ext/158385033/drv_i2c.o

.text.fpsubadd  0x9d003dec      0x278
 .text.fpsubadd
                0x9d003dec      0x278 d:/programs/xc32/bin/bin/../../lib/gcc/pic32mx/4.8.3/../../../../pic32mx/lib\libm.a(fp32subadd.o)
                0x9d003dec                __subsf3
                0x9d003dec                fpsub
                0x9d003df4                __addsf3
                0x9d003df4                fpadd

.text.UART_6_InterruptHandler
                0x9d004064      0x270
 .text.UART_6_InterruptHandler
                0x9d004064      0x270 build/default/debug/_ext/1865657120/plib_uart6.o
                0x9d004064                UART_6_InterruptHandler

.text.scale     0x9d0042d4      0x23c
 .text.scale    0x9d0042d4      0x23c d:/programs/xc32/bin/bin/../../lib/gcc/pic32mx/4.8.3/../../../../pic32mx/lib\libc.a(doprnt_cdfFnopsuxX.eo)

.text.fp32div   0x9d004510      0x230
 .text.fp32div  0x9d004510      0x230 d:/programs/xc32/bin/bin/../../lib/gcc/pic32mx/4.8.3/../../../../pic32mx/lib\libm.a(fp32div.o)
                0x9d004510                fpdiv
                0x9d004510                __divsf3

.text._DRV_USART_BufferAdd
                0x9d004740      0x218
 .text._DRV_USART_BufferAdd
                0x9d004740      0x218 build/default/debug/_ext/869808652/drv_usart.o

.text.SYS_TIME_PLIBCallback
                0x9d004958      0x1e4
 .text.SYS_TIME_PLIBCallback
                0x9d004958      0x1e4 build/default/debug/_ext/101884895/sys_time.o

.text.fp32mul   0x9d004b3c      0x1bc
 .text.fp32mul  0x9d004b3c      0x1bc d:/programs/xc32/bin/bin/../../lib/gcc/pic32mx/4.8.3/../../../../pic32mx/lib\libm.a(fp32mul.o)
                0x9d004b3c                __mulsf3
                0x9d004b3c                fpmul

.dinit          0x9d004cf8      0x1b0
 .dinit         0x9d004cf8      0x1b0 data_init

.text._DRV_USART_BufferQueueTask
                0x9d004ea8      0x1ac
 .text._DRV_USART_BufferQueueTask
                0x9d004ea8      0x1ac build/default/debug/_ext/869808652/drv_usart.o

.text.DRV_I2C_Open
                0x9d005054      0x19c
 .text.DRV_I2C_Open
                0x9d005054      0x19c build/default/debug/_ext/158385033/drv_i2c.o
                0x9d005054                DRV_I2C_Open

.text.DRV_USART_Initialize
                0x9d0051f0      0x194
 .text.DRV_USART_Initialize
                0x9d0051f0      0x194 build/default/debug/_ext/869808652/drv_usart.o
                0x9d0051f0                DRV_USART_Initialize

.text.DRV_USART_Open
                0x9d005384      0x184
 .text.DRV_USART_Open
                0x9d005384      0x184 build/default/debug/_ext/869808652/drv_usart.o
                0x9d005384                DRV_USART_Open

.text.SYS_TIME_HwTimerCompareUpdate
                0x9d005508      0x174
 .text.SYS_TIME_HwTimerCompareUpdate
                0x9d005508      0x174 build/default/debug/_ext/101884895/sys_time.o

.rodata         0x9d005680      0x2b8
 .rodata        0x9d005680      0x160 d:/programs/xc32/bin/bin/../../lib/gcc/pic32mx/4.8.3/../../../../pic32mx/lib\libc.a(ldpowers.o)
                0x9d005680                _npowers_
                0x9d005730                _powers_
 .rodata        0x9d0057e0      0x158 build/default/debug/_ext/1171490990/exceptions.o

.text.SYS_Initialize
                0x9d005938      0x150
 .text.SYS_Initialize
                0x9d005938      0x150 build/default/debug/_ext/1171490990/initialization.o
                0x9d005938                SYS_Initialize

.text._DRV_USART_ResourceLock
                0x9d005a88      0x14c
 .text._DRV_USART_ResourceLock
                0x9d005a88      0x14c build/default/debug/_ext/869808652/drv_usart.o

.text.UART6_SerialSetup
                0x9d005bd4      0x144
 .text.UART6_SerialSetup
                0x9d005bd4      0x144 build/default/debug/_ext/1865657120/plib_uart6.o
                0x9d005bd4                UART6_SerialSetup

.text.fputc     0x9d005d18      0x144
 .text.fputc    0x9d005d18      0x144 d:/programs/xc32/bin/bin/../../lib/gcc/pic32mx/4.8.3/../../../../pic32mx/lib\libc.a(_fputc_simple.o)
                0x9d005d18                fputc

.text.SYS_TIME_Initialize
                0x9d005e5c      0x13c
 .text.SYS_TIME_Initialize
                0x9d005e5c      0x13c build/default/debug/_ext/101884895/sys_time.o
                0x9d005e5c                SYS_TIME_Initialize

.rodata         0x9d005f98      0x130
 .rodata        0x9d005f98      0x130 build/default/debug/_ext/1171490990/initialization.o
                0x9d005f98                sysTimeInitData
                0x9d005fa0                sysTimePlibAPI
                0x9d005fbc                drvUsart0InitData
                0x9d005ff4                drvUSART0InterruptSources
                0x9d006010                drvUsart0remapError
                0x9d00601c                drvUsart0remapStopBits
                0x9d006028                drvUsart0remapParity
                0x9d006040                drvUsart0remapDataWidth
                0x9d006054                drvUsart0PlibAPI
                0x9d00607c                drvI2C0InitData
                0x9d006098                drvI2C0InterruptSources
                0x9d0060ac                drvI2C0PLibAPI

.text.CORE_TIMER_Handler
                0x9d0060c8      0x130
 .text.CORE_TIMER_Handler
                0x9d0060c8      0x130 build/default/debug/_ext/1171490990/interrupts.o
                0x9d0060c8                CORE_TIMER_Handler

.text.TIMER_1_Handler
                0x9d0061f8      0x130
 .text.TIMER_1_Handler
                0x9d0061f8      0x130 build/default/debug/_ext/1171490990/interrupts.o
                0x9d0061f8                TIMER_1_Handler

.text.INPUT_CAPTURE_1_Handler
                0x9d006328      0x130
 .text.INPUT_CAPTURE_1_Handler
                0x9d006328      0x130 build/default/debug/_ext/1171490990/interrupts.o
                0x9d006328                INPUT_CAPTURE_1_Handler

.text.TIMER_2_Handler
                0x9d006458      0x130
 .text.TIMER_2_Handler
                0x9d006458      0x130 build/default/debug/_ext/1171490990/interrupts.o
                0x9d006458                TIMER_2_Handler

.text.INPUT_CAPTURE_2_Handler
                0x9d006588      0x130
 .text.INPUT_CAPTURE_2_Handler
                0x9d006588      0x130 build/default/debug/_ext/1171490990/interrupts.o
                0x9d006588                INPUT_CAPTURE_2_Handler

.text.INPUT_CAPTURE_3_Handler
                0x9d0066b8      0x130
 .text.INPUT_CAPTURE_3_Handler
                0x9d0066b8      0x130 build/default/debug/_ext/1171490990/interrupts.o
                0x9d0066b8                INPUT_CAPTURE_3_Handler

.text.TIMER_4_Handler
                0x9d0067e8      0x130
 .text.TIMER_4_Handler
                0x9d0067e8      0x130 build/default/debug/_ext/1171490990/interrupts.o
                0x9d0067e8                TIMER_4_Handler

.text.INPUT_CAPTURE_4_Handler
                0x9d006918      0x130
 .text.INPUT_CAPTURE_4_Handler
                0x9d006918      0x130 build/default/debug/_ext/1171490990/interrupts.o
                0x9d006918                INPUT_CAPTURE_4_Handler

.text.I2C_5_Handler
                0x9d006a48      0x130
 .text.I2C_5_Handler
                0x9d006a48      0x130 build/default/debug/_ext/1171490990/interrupts.o
                0x9d006a48                I2C_5_Handler

.text.UART_6_Handler
                0x9d006b78      0x130
 .text.UART_6_Handler
                0x9d006b78      0x130 build/default/debug/_ext/1171490990/interrupts.o
                0x9d006b78                UART_6_Handler

.text.SYS_TIME_TimerObjectCreate
                0x9d006ca8      0x130
 .text.SYS_TIME_TimerObjectCreate
                0x9d006ca8      0x130 build/default/debug/_ext/101884895/sys_time.o

.text._DRV_USART_ResourceUnlock
                0x9d006dd8      0x12c
 .text._DRV_USART_ResourceUnlock
                0x9d006dd8      0x12c build/default/debug/_ext/869808652/drv_usart.o

.text._flsbuf   0x9d006f04      0x12c
 .text._flsbuf  0x9d006f04      0x12c d:/programs/xc32/bin/bin/../../lib/gcc/pic32mx/4.8.3/../../../../pic32mx/lib\libc.a(_flsbuf_simple.o)
                0x9d006f04                _flsbuf

.text.dpcmp     0x9d007030      0x12c
 .text.dpcmp    0x9d007030      0x12c d:/programs/xc32/bin/bin/../../lib/gcc/pic32mx/4.8.3/../../../../pic32mx/lib\libm.a(dpcmp.o)
                0x9d007030                __ltdf2
                0x9d007030                __gedf2
                0x9d007030                dpcmp
                0x9d007030                __ledf2
                0x9d007030                __nedf2
                0x9d007030                __eqdf2
                0x9d007030                __gtdf2

.text.SYS_TIME_AddToList
                0x9d00715c      0x114
 .text.SYS_TIME_AddToList
                0x9d00715c      0x114 build/default/debug/_ext/101884895/sys_time.o

.text.I2C5_TransferSetup
                0x9d007270      0x110
 .text.I2C5_TransferSetup
                0x9d007270      0x110 build/default/debug/_ext/60169480/plib_i2c5.o
                0x9d007270                I2C5_TransferSetup

.rodata         0x9d007380      0x104
 .rodata        0x9d007380      0x104 d:/programs/xc32/bin/bin/../../lib/gcc/pic32mx/4.8.3/../../../../pic32mx/lib\libc.a(ctype.o)
                0x9d007380                _ctype

.text.Bno055_init
                0x9d007484      0x100
 .text.Bno055_init
                0x9d007484      0x100 build/default/debug/BNO055.o
                0x9d007484                Bno055_init

.text._DRV_I2C_ResourceLock
                0x9d007584       0xf8
 .text._DRV_I2C_ResourceLock
                0x9d007584       0xf8 build/default/debug/_ext/158385033/drv_i2c.o

.rodata         0x9d007680       0xf0
 .rodata        0x9d007680       0xf0 d:/programs/xc32/bin/bin/../../lib/gcc/pic32mx/4.8.3/../../../../pic32mx/lib\libc.a(doprnt_cdfFnopsuxX.eo)

.text.__fixdfdi
                0x9d007770       0xe8
 .text.__fixdfdi
                0x9d007770       0xe8 d:/programs/xc32/bin/bin/../../lib/gcc/pic32mx/4.8.3/../../../../pic32mx/lib\libe.a(_fixdfdi.o)
                0x9d007770                __fixdfdi

.text.MPU6050_init
                0x9d007858       0xdc
 .text.MPU6050_init
                0x9d007858       0xdc build/default/debug/MPU6050.o
                0x9d007858                MPU6050_init

.text.general_exception
                0x9d007934       0xdc
 .text.general_exception
                0x9d007934       0xdc d:/programs/xc32/bin/bin/../../lib/gcc/pic32mx/4.8.3/../../../../pic32mx/lib\libpic32.a(general-exception.o)
                0x9d007934                _general_exception_context

.text._DRV_I2C_ResourceUnlock
                0x9d007a10       0xd4
 .text._DRV_I2C_ResourceUnlock
                0x9d007a10       0xd4 build/default/debug/_ext/158385033/drv_i2c.o

.text.DRV_I2C_Initialize
                0x9d007ae4       0xc8
 .text.DRV_I2C_Initialize
                0x9d007ae4       0xc8 build/default/debug/_ext/158385033/drv_i2c.o
                0x9d007ae4                DRV_I2C_Initialize

.text.PID_Compute
                0x9d007bac       0xb8
 .text.PID_Compute
                0x9d007bac       0xb8 build/default/debug/_ext/1360937237/state_estimation.o
                0x9d007bac                PID_Compute

.text.SYS_TIME_TimerStart
                0x9d007c64       0xb4
 .text.SYS_TIME_TimerStart
                0x9d007c64       0xb4 build/default/debug/_ext/101884895/sys_time.o
                0x9d007c64                SYS_TIME_TimerStart

.text.fptodp    0x9d007d18       0xac
 .text.fptodp   0x9d007d18       0xac d:/programs/xc32/bin/bin/../../lib/gcc/pic32mx/4.8.3/../../../../pic32mx/lib\libm.a(fptodp.o)
                0x9d007d18                fptodp
                0x9d007d18                __extendsfdf2

.text           0x9d007dc4       0xa8
 .text          0x9d007dc4       0xa8 d:/programs/xc32/bin/bin/../../lib/gcc/pic32mx/4.8.3/../../../../pic32mx/lib\libpic32.a(memset.o)
                0x9d007dc4                memset

.text.libm      0x9d007e6c       0xa8
 .text.libm     0x9d007e6c       0xa8 d:/programs/xc32/bin/bin/../../lib/gcc/pic32mx/4.8.3/../../../../pic32mx/lib\libm.a(dpfrexp.o)
                0x9d007e6c                dpfrexp
                0x9d007e6c                frexpl
                0x9d007e6c                frexp

.text.write     0x9d007f14       0x9c
 .text.write    0x9d007f14       0x9c d:/programs/xc32/bin/bin/../../lib/gcc/pic32mx/4.8.3/../../../../pic32mx/lib\libpic32.a(write.o)
                0x9d007f14                write

.text.APP_Initialize
                0x9d007fb0       0x98
 .text.APP_Initialize
                0x9d007fb0       0x98 build/default/debug/_ext/1360937237/app.o
                0x9d007fb0                APP_Initialize

.text.Update_ICAP1
                0x9d008048       0x94
 .text.Update_ICAP1
                0x9d008048       0x94 build/default/debug/_ext/1360937237/interrupt_callbacks.o
                0x9d008048                Update_ICAP1

.text.SYS_TIME_RemoveFromList
                0x9d0080dc       0x94
 .text.SYS_TIME_RemoveFromList
                0x9d0080dc       0x94 build/default/debug/_ext/101884895/sys_time.o

.text.UART6_Initialize
                0x9d008170       0x94
 .text.UART6_Initialize
                0x9d008170       0x94 build/default/debug/_ext/1865657120/plib_uart6.o
                0x9d008170                UART6_Initialize

.text.Update_ICAP2
                0x9d008204       0x8c
 .text.Update_ICAP2
                0x9d008204       0x8c build/default/debug/_ext/1360937237/interrupt_callbacks.o
                0x9d008204                Update_ICAP2

.text.Update_ICAP3
                0x9d008290       0x8c
 .text.Update_ICAP3
                0x9d008290       0x8c build/default/debug/_ext/1360937237/interrupt_callbacks.o
                0x9d008290                Update_ICAP3

.text.Update_ICAP4
                0x9d00831c       0x8c
 .text.Update_ICAP4
                0x9d00831c       0x8c build/default/debug/_ext/1360937237/interrupt_callbacks.o
                0x9d00831c                Update_ICAP4

.text.SYS_TIME_DelayMS
                0x9d0083a8       0x8c
 .text.SYS_TIME_DelayMS
                0x9d0083a8       0x8c build/default/debug/_ext/101884895/sys_time.o
                0x9d0083a8                SYS_TIME_DelayMS

.text.I2C5_WriteRead
                0x9d008434       0x8c
 .text.I2C5_WriteRead
                0x9d008434       0x8c build/default/debug/_ext/60169480/plib_i2c5.o
                0x9d008434                I2C5_WriteRead

.text.__orderdf2
                0x9d0084c0       0x8c
 .text.__orderdf2
                0x9d0084c0       0x8c d:/programs/xc32/bin/bin/../../lib/gcc/pic32mx/4.8.3/../../../../pic32mx/lib\libe.a(_orderdf2.o)
                0x9d0084c0                __orderdf2

.text.SYS_TIME_TimerAdd
                0x9d00854c       0x88
 .text.SYS_TIME_TimerAdd
                0x9d00854c       0x88 build/default/debug/_ext/101884895/sys_time.o

.text.UART6_ErrorGet
                0x9d0085d4       0x88
 .text.UART6_ErrorGet
                0x9d0085d4       0x88 build/default/debug/_ext/1865657120/plib_uart6.o
                0x9d0085d4                UART6_ErrorGet

.text.I2C5_Read
                0x9d00865c       0x88
 .text.I2C5_Read
                0x9d00865c       0x88 build/default/debug/_ext/60169480/plib_i2c5.o
                0x9d00865c                I2C5_Read

.text.I2C5_Write
                0x9d0086e4       0x88
 .text.I2C5_Write
                0x9d0086e4       0x88 build/default/debug/_ext/60169480/plib_i2c5.o
                0x9d0086e4                I2C5_Write

.text.I2C5_WriteForced
                0x9d00876c       0x88
 .text.I2C5_WriteForced
                0x9d00876c       0x88 build/default/debug/_ext/60169480/plib_i2c5.o
                0x9d00876c                I2C5_WriteForced

.text.Motors_Limit
                0x9d0087f4       0x88
 .text.Motors_Limit
                0x9d0087f4       0x88 build/default/debug/_ext/1360937237/app.o
                0x9d0087f4                Motors_Limit

.text.DRV_I2C_TransferEventHandlerSet
                0x9d00887c       0x84
 .text.DRV_I2C_TransferEventHandlerSet
                0x9d00887c       0x84 build/default/debug/_ext/158385033/drv_i2c.o
                0x9d00887c                DRV_I2C_TransferEventHandlerSet

.text           0x9d008900       0x84
 .text          0x9d008900       0x84 d:/programs/xc32/bin/bin/../../lib/gcc/pic32mx/4.8.3/../../../../pic32mx/lib\libpic32.a(pic32_data_init.o)
                0x9d008900                __pic32_data_init

.text.SYS_TIME_TimerDestroy
                0x9d008984       0x80
 .text.SYS_TIME_TimerDestroy
                0x9d008984       0x80 build/default/debug/_ext/101884895/sys_time.o
                0x9d008984                SYS_TIME_TimerDestroy

.text.UART6_Read
                0x9d008a04       0x80
 .text.UART6_Read
                0x9d008a04       0x80 build/default/debug/_ext/1865657120/plib_uart6.o
                0x9d008a04                UART6_Read

.text.__fixunsdfdi
                0x9d008a84       0x80
 .text.__fixunsdfdi
                0x9d008a84       0x80 d:/programs/xc32/bin/bin/../../lib/gcc/pic32mx/4.8.3/../../../../pic32mx/lib\libe.a(_fixunsdfdi.o)
                0x9d008a84                __fixunsdfdi

.text.UART6_Write
                0x9d008b04       0x7c
 .text.UART6_Write
                0x9d008b04       0x7c build/default/debug/_ext/1865657120/plib_uart6.o
                0x9d008b04                UART6_Write

.text.fptoul    0x9d008b80       0x7c
 .text.fptoul   0x9d008b80       0x7c d:/programs/xc32/bin/bin/../../lib/gcc/pic32mx/4.8.3/../../../../pic32mx/lib\libm.a(fptoul.o)
                0x9d008b80                fptoul
                0x9d008b80                fptoui
                0x9d008b80                __fixunssfsi

.text._DRV_I2C_DriverHandleValidate
                0x9d008bfc       0x78
 .text._DRV_I2C_DriverHandleValidate
                0x9d008bfc       0x78 build/default/debug/_ext/158385033/drv_i2c.o

.text._DRV_USART_DriverHandleValidate
                0x9d008c74       0x78
 .text._DRV_USART_DriverHandleValidate
                0x9d008c74       0x78 build/default/debug/_ext/869808652/drv_usart.o

.text.print_uart
                0x9d008cec       0x78
 .text.print_uart
                0x9d008cec       0x78 build/default/debug/_ext/1360937237/app.o
                0x9d008cec                print_uart

.text.litodp    0x9d008d64       0x78
 .text.litodp   0x9d008d64       0x78 d:/programs/xc32/bin/bin/../../lib/gcc/pic32mx/4.8.3/../../../../pic32mx/lib\libm.a(litodp.o)
                0x9d008d64                __floatsidf
                0x9d008d64                litodp

.text.SYS_TIME_UpdateTimerList
                0x9d008ddc       0x74
 .text.SYS_TIME_UpdateTimerList
                0x9d008ddc       0x74 build/default/debug/_ext/101884895/sys_time.o

.text._DRV_USART_ReadSubmit
                0x9d008e50       0x74
 .text._DRV_USART_ReadSubmit
                0x9d008e50       0x74 build/default/debug/_ext/869808652/drv_usart.o

.text._DRV_USART_WriteSubmit
                0x9d008ec4       0x74
 .text._DRV_USART_WriteSubmit
                0x9d008ec4       0x74 build/default/debug/_ext/869808652/drv_usart.o

.text.APP_I2C_Callback
                0x9d008f38       0x70
 .text.APP_I2C_Callback
                0x9d008f38       0x70 build/default/debug/_ext/1360937237/interrupt_callbacks.o
                0x9d008f38                APP_I2C_Callback

.text.SYS_TIME_GetTimerObject
                0x9d008fa8       0x68
 .text.SYS_TIME_GetTimerObject
                0x9d008fa8       0x68 build/default/debug/_ext/101884895/sys_time.o

.text.I2C5_Initialize
                0x9d009010       0x68
 .text.I2C5_Initialize
                0x9d009010       0x68 build/default/debug/_ext/60169480/plib_i2c5.o
                0x9d009010                I2C5_Initialize

.text._sprintf_fF
                0x9d009078       0x68
 .text._sprintf_fF
                0x9d009078       0x68 d:/programs/xc32/bin/bin/../../lib/gcc/pic32mx/4.8.3/../../../../pic32mx/lib\libc.a(sprintf_fF.eo)
                0x9d009078                _sprintf_fF

.text.EVIC_Initialize
                0x9d0090e0       0x64
 .text.EVIC_Initialize
                0x9d0090e0       0x64 build/default/debug/_ext/1865200349/plib_evic.o
                0x9d0090e0                EVIC_Initialize

.text.CORETIMER_Start
                0x9d009144       0x64
 .text.CORETIMER_Start
                0x9d009144       0x64 build/default/debug/_ext/1249264884/plib_coretimer.o
                0x9d009144                CORETIMER_Start

.text           0x9d0091a8       0x64
 .text          0x9d0091a8       0x64 d:/programs/xc32/bin/bin/../../lib/gcc/pic32mx/4.8.3\libgcc.a(_floatundidf.o)
                0x9d0091a8                __floatundidf

.text.sitofp    0x9d00920c       0x60
 .text.sitofp   0x9d00920c       0x60 d:/programs/xc32/bin/bin/../../lib/gcc/pic32mx/4.8.3/../../../../pic32mx/lib\libm.a(sitofp.o)
                0x9d00920c                sitofp
                0x9d00920c                litofp
                0x9d00920c                __floatsisf

.text.INPUT_CAPTURE_4_InterruptHandler
                0x9d00926c       0x5c
 .text.INPUT_CAPTURE_4_InterruptHandler
                0x9d00926c       0x5c build/default/debug/_ext/1865301019/plib_icap4.o
                0x9d00926c                INPUT_CAPTURE_4_InterruptHandler

.text.INPUT_CAPTURE_2_InterruptHandler
                0x9d0092c8       0x5c
 .text.INPUT_CAPTURE_2_InterruptHandler
                0x9d0092c8       0x5c build/default/debug/_ext/1865301019/plib_icap2.o
                0x9d0092c8                INPUT_CAPTURE_2_InterruptHandler

.text.INPUT_CAPTURE_3_InterruptHandler
                0x9d009324       0x5c
 .text.INPUT_CAPTURE_3_InterruptHandler
                0x9d009324       0x5c build/default/debug/_ext/1865301019/plib_icap3.o
                0x9d009324                INPUT_CAPTURE_3_InterruptHandler

.text.INPUT_CAPTURE_1_InterruptHandler
                0x9d009380       0x5c
 .text.INPUT_CAPTURE_1_InterruptHandler
                0x9d009380       0x5c build/default/debug/_ext/1865301019/plib_icap1.o
                0x9d009380                INPUT_CAPTURE_1_InterruptHandler

.text.SYS_TIME_TimerPeriodHasExpired
                0x9d0093dc       0x5c
 .text.SYS_TIME_TimerPeriodHasExpired
                0x9d0093dc       0x5c build/default/debug/_ext/101884895/sys_time.o
                0x9d0093dc                SYS_TIME_TimerPeriodHasExpired

.text._DRV_USART_RX_PLIB_CallbackHandler
                0x9d009438       0x5c
 .text._DRV_USART_RX_PLIB_CallbackHandler
                0x9d009438       0x5c build/default/debug/_ext/869808652/drv_usart.o

.text.SYS_INT_SourceDisable
                0x9d009494       0x58
 .text.SYS_INT_SourceDisable
                0x9d009494       0x58 build/default/debug/_ext/1881668453/sys_int.o
                0x9d009494                SYS_INT_SourceDisable

.text.SYS_TIME_ResourceLock
                0x9d0094ec       0x54
 .text.SYS_TIME_ResourceLock
                0x9d0094ec       0x54 build/default/debug/_ext/101884895/sys_time.o

.text.main_entry
                0x9d009540       0x54
 .text.main_entry
                0x9d009540       0x54 C:\Users\samfi\AppData\Local\Temp\ccuXFrqE.o
                0x9d009574                __crt0_exit

.text._general_exception_handler
                0x9d009594       0x50
 .text._general_exception_handler
                0x9d009594       0x50 build/default/debug/_ext/1171490990/exceptions.o
                0x9d009594                _general_exception_handler

.text           0x9d0095e4       0x4c
 .text          0x9d0095e4       0x4c d:/programs/xc32/bin/bin/../../lib/gcc/pic32mx/4.8.3\libgcc.a(floatunsisf.o)
                0x9d0095e4                __floatunsisf

.text._bootstrap_exception_handler
                0x9d009630       0x48
 .text._bootstrap_exception_handler
                0x9d009630       0x48 d:/programs/xc32/bin/bin/../../lib/gcc/pic32mx/4.8.3/../../../../pic32mx/lib\libpic32.a(default-bootstrap-exception-handler.o)
                0x9d009630                _bootstrap_exception_handler

.vector_default
                0x9d009678       0x48
 .vector_default
                0x9d009678       0x48 d:/programs/xc32/bin/bin/../../lib/gcc/pic32mx/4.8.3/../../../../pic32mx/lib\libpic32.a(defaultinterrupt.o)
                0x9d009678                _DefaultInterrupt

.text.Delay_ms  0x9d0096c0       0x44
 .text.Delay_ms
                0x9d0096c0       0x44 build/default/debug/_ext/1360937237/i2c_personal.o
                0x9d0096c0                Delay_ms

.text           0x9d009704       0x88
 .text          0x9d009704       0x44 d:/programs/xc32/bin/bin/../../lib/gcc/pic32mx/4.8.3/../../../../pic32mx/lib\pic32_software_reset.o
                0x9d009704                __pic32_software_reset
 .text          0x9d009748       0x44 d:/programs/xc32/bin/bin/../../lib/gcc/pic32mx/4.8.3\libgcc.a(floatunsidf.o)
                0x9d009748                __floatunsidf

.text.SYS_TIME_ResourceUnlock
                0x9d00978c       0x40
 .text.SYS_TIME_ResourceUnlock
                0x9d00978c       0x40 build/default/debug/_ext/101884895/sys_time.o

.text.CORE_TIMER_InterruptHandler
                0x9d0097cc       0x40
 .text.CORE_TIMER_InterruptHandler
                0x9d0097cc       0x40 build/default/debug/_ext/1249264884/plib_coretimer.o
                0x9d0097cc                CORE_TIMER_InterruptHandler

.text.TIMER_4_InterruptHandler
                0x9d00980c       0x40
 .text.TIMER_4_InterruptHandler
                0x9d00980c       0x40 build/default/debug/_ext/60181895/plib_tmr4.o
                0x9d00980c                TIMER_4_InterruptHandler

.text.TMR2_Initialize
                0x9d00984c       0x40
 .text.TMR2_Initialize
                0x9d00984c       0x40 build/default/debug/_ext/60181895/plib_tmr2.o
                0x9d00984c                TMR2_Initialize

.text.TIMER_2_InterruptHandler
                0x9d00988c       0x40
 .text.TIMER_2_InterruptHandler
                0x9d00988c       0x40 build/default/debug/_ext/60181895/plib_tmr2.o
                0x9d00988c                TIMER_2_InterruptHandler

.text.TIMER_1_InterruptHandler
                0x9d0098cc       0x40
 .text.TIMER_1_InterruptHandler
                0x9d0098cc       0x40 build/default/debug/_ext/1865638794/plib_tmr1.o
                0x9d0098cc                TIMER_1_InterruptHandler

.text.Motors_Init
                0x9d00990c       0x40
 .text.Motors_Init
                0x9d00990c       0x40 build/default/debug/_ext/1360937237/app.o
                0x9d00990c                Motors_Init

.text.Motors_Update
                0x9d00994c       0x40
 .text.Motors_Update
                0x9d00994c       0x40 build/default/debug/_ext/1360937237/app.o
                0x9d00994c                Motors_Update

.text._printf_cdnopsuxX
                0x9d00998c       0x40
 .text._printf_cdnopsuxX
                0x9d00998c       0x40 d:/programs/xc32/bin/bin/../../lib/gcc/pic32mx/4.8.3/../../../../pic32mx/lib\libc.a(printf_cdnopsuxX.eo)
                0x9d00998c                _printf_cdnopsuxX

.text.GPIO_Initialize
                0x9d0099cc       0x3c
 .text.GPIO_Initialize
                0x9d0099cc       0x3c build/default/debug/_ext/1865254177/plib_gpio.o
                0x9d0099cc                GPIO_Initialize

.text.SYS_TIME_DelayIsComplete
                0x9d009a08       0x3c
 .text.SYS_TIME_DelayIsComplete
                0x9d009a08       0x3c build/default/debug/_ext/101884895/sys_time.o
                0x9d009a08                SYS_TIME_DelayIsComplete

.text.TMR4_Initialize
                0x9d009a44       0x3c
 .text.TMR4_Initialize
                0x9d009a44       0x3c build/default/debug/_ext/60181895/plib_tmr4.o
                0x9d009a44                TMR4_Initialize

.text.TMR1_Initialize
                0x9d009a80       0x3c
 .text.TMR1_Initialize
                0x9d009a80       0x3c build/default/debug/_ext/1865638794/plib_tmr1.o
                0x9d009a80                TMR1_Initialize

.text.PID_Init  0x9d009abc       0x38
 .text.PID_Init
                0x9d009abc       0x38 build/default/debug/_ext/1360937237/state_estimation.o
                0x9d009abc                PID_Init

.text.DRV_I2C_WriteReadTransferAdd
                0x9d009af4       0x38
 .text.DRV_I2C_WriteReadTransferAdd
                0x9d009af4       0x38 build/default/debug/_ext/158385033/drv_i2c.o
                0x9d009af4                DRV_I2C_WriteReadTransferAdd

.text.SYS_TIME_GetElapsedCount
                0x9d009b2c       0x38
 .text.SYS_TIME_GetElapsedCount
                0x9d009b2c       0x38 build/default/debug/_ext/101884895/sys_time.o

.text._DRV_USART_RemoveTransferObjFromList
                0x9d009b64       0x38
 .text._DRV_USART_RemoveTransferObjFromList
                0x9d009b64       0x38 build/default/debug/_ext/869808652/drv_usart.o

.text.SYS_TIME_Counter64Update
                0x9d009b9c       0x34
 .text.SYS_TIME_Counter64Update
                0x9d009b9c       0x34 build/default/debug/_ext/101884895/sys_time.o

.text.CORETIMER_Stop
                0x9d009bd0       0x34
 .text.CORETIMER_Stop
                0x9d009bd0       0x34 build/default/debug/_ext/1249264884/plib_coretimer.o
                0x9d009bd0                CORETIMER_Stop

.text.TMR3_Initialize
                0x9d009c04       0x34
 .text.TMR3_Initialize
                0x9d009c04       0x34 build/default/debug/_ext/60181895/plib_tmr3.o
                0x9d009c04                TMR3_Initialize

.text.WriteByte
                0x9d009c38       0x30
 .text.WriteByte
                0x9d009c38       0x30 build/default/debug/_ext/1360937237/i2c_personal.o
                0x9d009c38                WriteByte

.text.GPIO_PortWrite
                0x9d009c68       0x30
 .text.GPIO_PortWrite
                0x9d009c68       0x30 build/default/debug/_ext/1865254177/plib_gpio.o
                0x9d009c68                GPIO_PortWrite

.text.DRV_I2C_WriteTransferAdd
                0x9d009c98       0x30
 .text.DRV_I2C_WriteTransferAdd
                0x9d009c98       0x30 build/default/debug/_ext/158385033/drv_i2c.o
                0x9d009c98                DRV_I2C_WriteTransferAdd

.text.CORETIMER_Initialize
                0x9d009cc8       0x2c
 .text.CORETIMER_Initialize
                0x9d009cc8       0x2c build/default/debug/_ext/1249264884/plib_coretimer.o
                0x9d009cc8                CORETIMER_Initialize

.text.EVIC_SourceEnable
                0x9d009cf4       0x28
 .text.EVIC_SourceEnable
                0x9d009cf4       0x28 build/default/debug/_ext/1865200349/plib_evic.o
                0x9d009cf4                EVIC_SourceEnable

.text.EVIC_SourceDisable
                0x9d009d1c       0x28
 .text.EVIC_SourceDisable
                0x9d009d1c       0x28 build/default/debug/_ext/1865200349/plib_evic.o
                0x9d009d1c                EVIC_SourceDisable

.text.OCMP1_Initialize
                0x9d009d44       0x28
 .text.OCMP1_Initialize
                0x9d009d44       0x28 build/default/debug/_ext/1865480137/plib_ocmp1.o
                0x9d009d44                OCMP1_Initialize

.text.OCMP4_Initialize
                0x9d009d6c       0x28
 .text.OCMP4_Initialize
                0x9d009d6c       0x28 build/default/debug/_ext/1865480137/plib_ocmp4.o
                0x9d009d6c                OCMP4_Initialize

.text.OCMP2_Initialize
                0x9d009d94       0x28
 .text.OCMP2_Initialize
                0x9d009d94       0x28 build/default/debug/_ext/1865480137/plib_ocmp2.o
                0x9d009d94                OCMP2_Initialize

.text.OCMP3_Initialize
                0x9d009dbc       0x28
 .text.OCMP3_Initialize
                0x9d009dbc       0x28 build/default/debug/_ext/1865480137/plib_ocmp3.o
                0x9d009dbc                OCMP3_Initialize

.text.SYS_INT_SourceRestore
                0x9d009de4       0x28
 .text.SYS_INT_SourceRestore
                0x9d009de4       0x28 build/default/debug/_ext/1881668453/sys_int.o
                0x9d009de4                SYS_INT_SourceRestore

.text.EVIC_SourceIsEnabled
                0x9d009e0c       0x24
 .text.EVIC_SourceIsEnabled
                0x9d009e0c       0x24 build/default/debug/_ext/1865200349/plib_evic.o
                0x9d009e0c                EVIC_SourceIsEnabled

.text._DRV_USART_TX_PLIB_CallbackHandler
                0x9d009e30       0x24
 .text._DRV_USART_TX_PLIB_CallbackHandler
                0x9d009e30       0x24 build/default/debug/_ext/869808652/drv_usart.o

.text.SYS_INT_Restore
                0x9d009e54       0x24
 .text.SYS_INT_Restore
                0x9d009e54       0x24 build/default/debug/_ext/1881668453/sys_int.o
                0x9d009e54                SYS_INT_Restore

.text.ICAP4_Initialize
                0x9d009e78       0x20
 .text.ICAP4_Initialize
                0x9d009e78       0x20 build/default/debug/_ext/1865301019/plib_icap4.o
                0x9d009e78                ICAP4_Initialize

.text.ICAP2_Initialize
                0x9d009e98       0x20
 .text.ICAP2_Initialize
                0x9d009e98       0x20 build/default/debug/_ext/1865301019/plib_icap2.o
                0x9d009e98                ICAP2_Initialize

.text.ICAP3_Initialize
                0x9d009eb8       0x20
 .text.ICAP3_Initialize
                0x9d009eb8       0x20 build/default/debug/_ext/1865301019/plib_icap3.o
                0x9d009eb8                ICAP3_Initialize

.text.main      0x9d009ed8       0x20
 .text.main     0x9d009ed8       0x20 build/default/debug/_ext/1360937237/main.o
                0x9d009ed8                main

.text.ICAP1_Initialize
                0x9d009ef8       0x20
 .text.ICAP1_Initialize
                0x9d009ef8       0x20 build/default/debug/_ext/1865301019/plib_icap1.o
                0x9d009ef8                ICAP1_Initialize

.text.DRV_USART_WriteBufferAdd
                0x9d009f18       0x20
 .text.DRV_USART_WriteBufferAdd
                0x9d009f18       0x20 build/default/debug/_ext/869808652/drv_usart.o
                0x9d009f18                DRV_USART_WriteBufferAdd

.text.SYS_INT_Disable
                0x9d009f38       0x20
 .text.SYS_INT_Disable
                0x9d009f38       0x20 build/default/debug/_ext/1881668453/sys_int.o
                0x9d009f38                SYS_INT_Disable

.text.GPIO_PortRead
                0x9d009f58       0x1c
 .text.GPIO_PortRead
                0x9d009f58       0x1c build/default/debug/_ext/1865254177/plib_gpio.o
                0x9d009f58                GPIO_PortRead

.text.GPIO_PortToggle
                0x9d009f74       0x1c
 .text.GPIO_PortToggle
                0x9d009f74       0x1c build/default/debug/_ext/1865254177/plib_gpio.o
                0x9d009f74                GPIO_PortToggle

.text.CORETIMER_CompareSet
                0x9d009f90       0x1c
 .text.CORETIMER_CompareSet
                0x9d009f90       0x1c build/default/debug/_ext/1249264884/plib_coretimer.o
                0x9d009f90                CORETIMER_CompareSet

.text.I2C5_CallbackRegister
                0x9d009fac       0x1c
 .text.I2C5_CallbackRegister
                0x9d009fac       0x1c build/default/debug/_ext/60169480/plib_i2c5.o
                0x9d009fac                I2C5_CallbackRegister

.rodata         0x9d009fc8       0x1c
 .rodata        0x9d009fc8       0x1c build/default/debug/_ext/1360937237/app.o

.text.SYS_Tasks
                0x9d009fe4       0x1c
 .text.SYS_Tasks
                0x9d009fe4       0x1c build/default/debug/_ext/1171490990/tasks.o
                0x9d009fe4                SYS_Tasks

.text.CORETIMER_CounterGet
                0x9d00a000       0x18
 .text.CORETIMER_CounterGet
                0x9d00a000       0x18 build/default/debug/_ext/1249264884/plib_coretimer.o
                0x9d00a000                CORETIMER_CounterGet

.text           0x9d00a018       0x18
 .text          0x9d00a018       0x18 d:/programs/xc32/bin/bin/../../lib/gcc/pic32mx/4.8.3/../../../../pic32mx/lib\libpic32.a(default-nmi-handler.o)
                0x9d00a018                _nmi_handler

.text.ICAP4_Enable
                0x9d00a030       0x14
 .text.ICAP4_Enable
                0x9d00a030       0x14 build/default/debug/_ext/1865301019/plib_icap4.o
                0x9d00a030                ICAP4_Enable

.text.ICAP2_Enable
                0x9d00a044       0x14
 .text.ICAP2_Enable
                0x9d00a044       0x14 build/default/debug/_ext/1865301019/plib_icap2.o
                0x9d00a044                ICAP2_Enable

.text.ICAP3_Enable
                0x9d00a058       0x14
 .text.ICAP3_Enable
                0x9d00a058       0x14 build/default/debug/_ext/1865301019/plib_icap3.o
                0x9d00a058                ICAP3_Enable

.text.ICAP1_Enable
                0x9d00a06c       0x14
 .text.ICAP1_Enable
                0x9d00a06c       0x14 build/default/debug/_ext/1865301019/plib_icap1.o
                0x9d00a06c                ICAP1_Enable

.text.OCMP1_Enable
                0x9d00a080       0x14
 .text.OCMP1_Enable
                0x9d00a080       0x14 build/default/debug/_ext/1865480137/plib_ocmp1.o
                0x9d00a080                OCMP1_Enable

.text.OCMP4_Enable
                0x9d00a094       0x14
 .text.OCMP4_Enable
                0x9d00a094       0x14 build/default/debug/_ext/1865480137/plib_ocmp4.o
                0x9d00a094                OCMP4_Enable

.text.OCMP2_Enable
                0x9d00a0a8       0x14
 .text.OCMP2_Enable
                0x9d00a0a8       0x14 build/default/debug/_ext/1865480137/plib_ocmp2.o
                0x9d00a0a8                OCMP2_Enable

.text.OCMP3_Enable
                0x9d00a0bc       0x14
 .text.OCMP3_Enable
                0x9d00a0bc       0x14 build/default/debug/_ext/1865480137/plib_ocmp3.o
                0x9d00a0bc                OCMP3_Enable

.text.UART6_ReadCallbackRegister
                0x9d00a0d0       0x14
 .text.UART6_ReadCallbackRegister
                0x9d00a0d0       0x14 build/default/debug/_ext/1865657120/plib_uart6.o
                0x9d00a0d0                UART6_ReadCallbackRegister

.text.UART6_WriteCallbackRegister
                0x9d00a0e4       0x14
 .text.UART6_WriteCallbackRegister
                0x9d00a0e4       0x14 build/default/debug/_ext/1865657120/plib_uart6.o
                0x9d00a0e4                UART6_WriteCallbackRegister

.text.I2C5_ErrorGet
                0x9d00a0f8       0x14
 .text.I2C5_ErrorGet
                0x9d00a0f8       0x14 build/default/debug/_ext/60169480/plib_i2c5.o
                0x9d00a0f8                I2C5_ErrorGet

.text.TMR2_Start
                0x9d00a10c       0x14
 .text.TMR2_Start
                0x9d00a10c       0x14 build/default/debug/_ext/60181895/plib_tmr2.o
                0x9d00a10c                TMR2_Start

.text.TMR3_Start
                0x9d00a120       0x14
 .text.TMR3_Start
                0x9d00a120       0x14 build/default/debug/_ext/60181895/plib_tmr3.o
                0x9d00a120                TMR3_Start

.text.TMR3_Stop
                0x9d00a134       0x14
 .text.TMR3_Stop
                0x9d00a134       0x14 build/default/debug/_ext/60181895/plib_tmr3.o
                0x9d00a134                TMR3_Stop

.text.__exception_handler_break
                0x9d00a148        0xc
 .text.__exception_handler_break
                0x9d00a148        0xc d:/programs/xc32/bin/bin/../../lib/gcc/pic32mx/4.8.3/../../../../pic32mx/lib\software-debug-break.o
                0x9d00a148                __exception_handler_break

.text.Update_Timer2
                0x9d00a154        0xc
 .text.Update_Timer2
                0x9d00a154        0xc build/default/debug/_ext/1360937237/interrupt_callbacks.o
                0x9d00a154                Update_Timer2

.text.ICAP4_CallbackRegister
                0x9d00a160        0xc
 .text.ICAP4_CallbackRegister
                0x9d00a160        0xc build/default/debug/_ext/1865301019/plib_icap4.o
                0x9d00a160                ICAP4_CallbackRegister

.text.ICAP2_CallbackRegister
                0x9d00a16c        0xc
 .text.ICAP2_CallbackRegister
                0x9d00a16c        0xc build/default/debug/_ext/1865301019/plib_icap2.o
                0x9d00a16c                ICAP2_CallbackRegister

.text.ICAP3_CallbackRegister
                0x9d00a178        0xc
 .text.ICAP3_CallbackRegister
                0x9d00a178        0xc build/default/debug/_ext/1865301019/plib_icap3.o
                0x9d00a178                ICAP3_CallbackRegister

.text.ICAP1_CallbackRegister
                0x9d00a184        0xc
 .text.ICAP1_CallbackRegister
                0x9d00a184        0xc build/default/debug/_ext/1865301019/plib_icap1.o
                0x9d00a184                ICAP1_CallbackRegister

.text.UART6_ReadIsBusy
                0x9d00a190        0xc
 .text.UART6_ReadIsBusy
                0x9d00a190        0xc build/default/debug/_ext/1865657120/plib_uart6.o
                0x9d00a190                UART6_ReadIsBusy

.text.UART6_ReadCountGet
                0x9d00a19c        0xc
 .text.UART6_ReadCountGet
                0x9d00a19c        0xc build/default/debug/_ext/1865657120/plib_uart6.o
                0x9d00a19c                UART6_ReadCountGet

.text.UART6_WriteIsBusy
                0x9d00a1a8        0xc
 .text.UART6_WriteIsBusy
                0x9d00a1a8        0xc build/default/debug/_ext/1865657120/plib_uart6.o
                0x9d00a1a8                UART6_WriteIsBusy

.text.UART6_WriteCountGet
                0x9d00a1b4        0xc
 .text.UART6_WriteCountGet
                0x9d00a1b4        0xc build/default/debug/_ext/1865657120/plib_uart6.o
                0x9d00a1b4                UART6_WriteCountGet

.text.CORETIMER_CallbackSet
                0x9d00a1c0        0xc
 .text.CORETIMER_CallbackSet
                0x9d00a1c0        0xc build/default/debug/_ext/1249264884/plib_coretimer.o
                0x9d00a1c0                CORETIMER_CallbackSet

.text.CORETIMER_FrequencyGet
                0x9d00a1cc        0xc
 .text.CORETIMER_FrequencyGet
                0x9d00a1cc        0xc build/default/debug/_ext/1249264884/plib_coretimer.o
                0x9d00a1cc                CORETIMER_FrequencyGet

.rodata         0x9d00a1d8        0xc
 .rodata        0x9d00a1d8        0xc build/default/debug/_ext/60169480/plib_i2c5.o

.text.TMR2_CallbackRegister
                0x9d00a1e4        0xc
 .text.TMR2_CallbackRegister
                0x9d00a1e4        0xc build/default/debug/_ext/60181895/plib_tmr2.o
                0x9d00a1e4                TMR2_CallbackRegister

.text._mon_putc
                0x9d00a1f0        0x8
 .text._mon_putc
                0x9d00a1f0        0x8 build/default/debug/_ext/163028504/xc32_monitor.o
                0x9d00a1f0                _mon_putc

.text.CLK_Initialize
                0x9d00a1f8        0x8
 .text.CLK_Initialize
                0x9d00a1f8        0x8 build/default/debug/_ext/60165520/plib_clk.o
                0x9d00a1f8                CLK_Initialize

.text.SYS_DMA_AddressingModeSetup
                0x9d00a200        0x8
 .text.SYS_DMA_AddressingModeSetup
                0x9d00a200        0x8 build/default/debug/_ext/14461671/sys_dma.o
                0x9d00a200                SYS_DMA_AddressingModeSetup

.text.SYS_DMA_DataWidthSetup
                0x9d00a208        0x8
 .text.SYS_DMA_DataWidthSetup
                0x9d00a208        0x8 build/default/debug/_ext/14461671/sys_dma.o
                0x9d00a208                SYS_DMA_DataWidthSetup

.text.SYS_DMA_ChannelTransfer
                0x9d00a210        0x8
 .text.SYS_DMA_ChannelTransfer
                0x9d00a210        0x8 build/default/debug/_ext/14461671/sys_dma.o
                0x9d00a210                SYS_DMA_ChannelTransfer

.text._on_reset
                0x9d00a218        0x8
 .text._on_reset
                0x9d00a218        0x8 d:/programs/xc32/bin/bin/../../lib/gcc/pic32mx/4.8.3/../../../../pic32mx/lib\libpic32.a(default-on-reset.o)
                0x9d00a218                _on_reset

.text._on_bootstrap
                0x9d00a220        0x8
 .text._on_bootstrap
                0x9d00a220        0x8 d:/programs/xc32/bin/bin/../../lib/gcc/pic32mx/4.8.3/../../../../pic32mx/lib\libpic32.a(default-on-bootstrap.o)
                0x9d00a220                _on_bootstrap

.rodata         0x9d00a228       0x10
 .rodata        0x9d00a228        0x8 d:/programs/xc32/bin/bin/../../lib/gcc/pic32mx/4.8.3\libgcc.a(_floatundidf.o)
 .rodata        0x9d00a230        0x8 d:/programs/xc32/bin/bin/../../lib/gcc/pic32mx/4.8.3\libgcc.a(floatunsidf.o)
